libpt.so.2.10.11:PTimeGetChar
libpt.so.2.10.11:PTimeGetDateOrder
libpt.so.2.10.11:PTimeIsDayName
libpt.so.2.10.11:PTimeIsMonthName
libpt.so.2.10.11:PTimeParse
libpt.so.2.10.11:PTimeUngetChar
libpt.so.2.10.11:_Z10DnsQuery_APKctjPvPP9DnsRecordS1_
libpt.so.2.10.11:_Z10SetSignalsPFviE
libpt.so.2.10.11:_Z11PAssertFuncPKc
libpt.so.2.10.11:_Z11PAssertFuncPKciS0_22PStandardAssertMessage
libpt.so.2.10.11:_Z11PAssertFuncPKciS0_S0_
libpt.so.2.10.11:_Z12PX_NewHandlePKci
libpt.so.2.10.11:_Z12ResolveNAPTRP9DnsRecordRN4PDNS11NAPTRRecordE
libpt.so.2.10.11:_Z15PGetErrorStreamv
libpt.so.2.10.11:_Z15PSetErrorStreamPSo
libpt.so.2.10.11:_Z15PXSignalHandleri
libpt.so.2.10.11:_Z16DnsRecordSetCopyP9DnsRecord
libpt.so.2.10.11:_Z16PX_GetThreadNamem
libpt.so.2.10.11:_Z17DnsRecordListFreeP9DnsRecordi
libpt.so.2.10.11:_Z17faultCodeToStringi
libpt.so.2.10.11:_Z17stringToFaultCodeR7PString
libpt.so.2.10.11:_Z19tinyjpeg_idct_floatP9componentPhi
libpt.so.2.10.11:_Z23PX_SuspendSignalHandleri
libpt.so.2.10.11:_Z28PPlugin_PNatMethod_STUN_linkv
libpt.so.2.10.11:_Z34PPlugin_PSoundChannel_WAVFile_linkv
libpt.so.2.10.11:_Z34PPlugin_PVideoInputDevice_Shm_linkv
libpt.so.2.10.11:_Z35PPlugin_PVideoOutputDevice_SDL_linkv
libpt.so.2.10.11:_Z36PPlugin_PSoundChannel_NullAudio_linkv
libpt.so.2.10.11:_Z37PPlugin_PVideoInputDevice_FFMPEG_linkv
libpt.so.2.10.11:_Z38PPlugin_PVideoInputDevice_YUVFile_linkv
libpt.so.2.10.11:_Z39PPlugin_PVideoOutputDevice_YUVFile_linkv
libpt.so.2.10.11:_Z40PPlugin_PVideoInputDevice_FakeVideo_linkv
libpt.so.2.10.11:_Z42PPlugin_PVideoOutputDevice_NULLOutput_linkv
libpt.so.2.10.11:_Z8psprintfPKcz
libpt.so.2.10.11:_Z9pvsprintfPKcP13__va_list_tag
libpt.so.2.10.11:_Z9pvsprintfRK7PStringP13__va_list_tag
libpt.so.2.10.11:_ZN10PASNObject15DecodeASNLengthERK10PBYTEArrayRiRt
libpt.so.2.10.11:_ZN10PASNObject15EncodeASNHeaderER10PBYTEArrayNS_7ASNTypeEt
libpt.so.2.10.11:_ZN10PASNObject15EncodeASNLengthER10PBYTEArrayt
libpt.so.2.10.11:_ZN10PASNObject16DecodeASNIntegerERK10PBYTEArrayRiS3_NS_7ASNTypeE
libpt.so.2.10.11:_ZN10PASNObject16EncodeASNIntegerER10PBYTEArrayiNS_7ASNTypeE
libpt.so.2.10.11:_ZN10PASNObject16GetEncodedLengthEv
libpt.so.2.10.11:_ZN10PASNObject17DecodeASNUnsignedERK10PBYTEArrayRiRjNS_7ASNTypeE
libpt.so.2.10.11:_ZN10PASNObject17EncodeASNUnsignedER10PBYTEArrayjNS_7ASNTypeE
libpt.so.2.10.11:_ZN10PASNObject18GetASNHeaderLengthEt
libpt.so.2.10.11:_ZN10PASNObject18GetASNLengthLengthEt
libpt.so.2.10.11:_ZN10PASNObject19GetASNIntegerLengthEi
libpt.so.2.10.11:_ZN10PASNObject20GetASNUnsignedLengthEj
libpt.so.2.10.11:_ZN10PASNObject22EncodeASNSequenceStartER10PBYTEArrayht
libpt.so.2.10.11:_ZN10PASNObject25GetASNSequenceStartLengthEt
libpt.so.2.10.11:_ZN10PASNObject6EncodeER10PBYTEArray
libpt.so.2.10.11:_ZN10PASNObjectC1Ev
libpt.so.2.10.11:_ZN10PASNObjectC2Ev
libpt.so.2.10.11:_ZN10PASNString16GetEncodedLengthEv
libpt.so.2.10.11:_ZN10PASNString6DecodeERK10PBYTEArrayRiN10PASNObject7ASNTypeE
libpt.so.2.10.11:_ZN10PASNString6EncodeER10PBYTEArrayN10PASNObject7ASNTypeE
libpt.so.2.10.11:_ZN10PASNStringC1EPKhi
libpt.so.2.10.11:_ZN10PASNStringC1ERK10PBYTEArrayN10PASNObject7ASNTypeE
libpt.so.2.10.11:_ZN10PASNStringC1ERK10PBYTEArrayRiN10PASNObject7ASNTypeE
libpt.so.2.10.11:_ZN10PASNStringC1ERK7PString
libpt.so.2.10.11:_ZN10PASNStringC2EPKhi
libpt.so.2.10.11:_ZN10PASNStringC2ERK10PBYTEArrayN10PASNObject7ASNTypeE
libpt.so.2.10.11:_ZN10PASNStringC2ERK10PBYTEArrayRiN10PASNObject7ASNTypeE
libpt.so.2.10.11:_ZN10PASNStringC2ERK7PString
libpt.so.2.10.11:_ZN10PASN_Array19SetConstraintBoundsEN11PASN_Object14ConstraintTypeEij
libpt.so.2.10.11:_ZN10PASN_Array6DecodeER11PASN_Stream
libpt.so.2.10.11:_ZN10PASN_Array7SetSizeEi
libpt.so.2.10.11:_ZN10PASN_ArrayC1ERKS_
libpt.so.2.10.11:_ZN10PASN_ArrayC1EjN11PASN_Object8TagClassE
libpt.so.2.10.11:_ZN10PASN_ArrayC2ERKS_
libpt.so.2.10.11:_ZN10PASN_ArrayC2EjN11PASN_Object8TagClassE
libpt.so.2.10.11:_ZN10PASN_ArrayaSERKS_
libpt.so.2.10.11:_ZN10PBYTEArray8ReadFromERSi
libpt.so.2.10.11:_ZN10PCLISocket10AddContextEPN4PCLI7ContextE
libpt.so.2.10.11:_ZN10PCLISocket10ThreadMainER7PThreadl
libpt.so.2.10.11:_ZN10PCLISocket12CreateSocketEv
libpt.so.2.10.11:_ZN10PCLISocket13RemoveContextEPN4PCLI7ContextE
libpt.so.2.10.11:_ZN10PCLISocket14HandleIncomingEv
libpt.so.2.10.11:_ZN10PCLISocket24HandleSingleThreadForAllEv
libpt.so.2.10.11:_ZN10PCLISocket4StopEv
libpt.so.2.10.11:_ZN10PCLISocket5StartEb
libpt.so.2.10.11:_ZN10PCLISocket6ListenEt
libpt.so.2.10.11:_ZN10PCLISocketC1EtPKcb
libpt.so.2.10.11:_ZN10PCLISocketC2EtPKcb
libpt.so.2.10.11:_ZN10PCLISocketD0Ev
libpt.so.2.10.11:_ZN10PCLISocketD1Ev
libpt.so.2.10.11:_ZN10PCLISocketD2Ev
libpt.so.2.10.11:_ZN10PCLITelnet12CreateSocketEv
libpt.so.2.10.11:_ZN10PCLITelnetC1EtPKcb
libpt.so.2.10.11:_ZN10PCLITelnetC2EtPKcb
libpt.so.2.10.11:_ZN10PCharArray8ReadFromERSi
libpt.so.2.10.11:_ZN10PCondMutex13WaitConditionEv
libpt.so.2.10.11:_ZN10PCondMutex6OnWaitEv
libpt.so.2.10.11:_ZN10PCondMutex6SignalEv
libpt.so.2.10.11:_ZN10PContainer10MakeUniqueEv
libpt.so.2.10.11:_ZN10PContainer10SetMinSizeEi
libpt.so.2.10.11:_ZN10PContainer12CopyContentsERKS_
libpt.so.2.10.11:_ZN10PContainer13CloneContentsEPKS_
libpt.so.2.10.11:_ZN10PContainer14AssignContentsERKS_
libpt.so.2.10.11:_ZN10PContainer16DestroyReferenceEv
libpt.so.2.10.11:_ZN10PContainer8DestructEv
libpt.so.2.10.11:_ZN10PContainerC1ER19PContainerReference
libpt.so.2.10.11:_ZN10PContainerC1ERKS_
libpt.so.2.10.11:_ZN10PContainerC1Ei
libpt.so.2.10.11:_ZN10PContainerC1EiPKS_
libpt.so.2.10.11:_ZN10PContainerC2ER19PContainerReference
libpt.so.2.10.11:_ZN10PContainerC2ERKS_
libpt.so.2.10.11:_ZN10PContainerC2Ei
libpt.so.2.10.11:_ZN10PContainerC2EiPKS_
libpt.so.2.10.11:_ZN10PContaineraSERKS_
libpt.so.2.10.11:_ZN10PDirectory11IsSeparatorEc
libpt.so.2.10.11:_ZN10PDirectory12CopyContentsERKS_
libpt.so.2.10.11:_ZN10PDirectory13CloneContentsEPKS_
libpt.so.2.10.11:_ZN10PDirectory15DestroyContentsEv
libpt.so.2.10.11:_ZN10PDirectory4NextEv
libpt.so.2.10.11:_ZN10PDirectory4OpenEi
libpt.so.2.10.11:_ZN10PDirectory5CloseEv
libpt.so.2.10.11:_ZN10PDirectory6ChangeERK7PString
libpt.so.2.10.11:_ZN10PDirectory6CreateERK7PStringi
libpt.so.2.10.11:_ZN10PDirectory6ExistsERK7PString
libpt.so.2.10.11:_ZN10PDirectory6RemoveERK7PString
libpt.so.2.10.11:_ZN10PDirectory6RemoveEv
libpt.so.2.10.11:_ZN10PDirectory7RestartEi
libpt.so.2.10.11:_ZN10PDirectory9ConstructEv
libpt.so.2.10.11:_ZN10PDirectoryC1EPKc
libpt.so.2.10.11:_ZN10PDirectoryC1ERK7PString
libpt.so.2.10.11:_ZN10PDirectoryC1Ev
libpt.so.2.10.11:_ZN10PDirectoryC2EPKc
libpt.so.2.10.11:_ZN10PDirectoryC2ERK7PString
libpt.so.2.10.11:_ZN10PDirectoryC2Ev
libpt.so.2.10.11:_ZN10PDirectoryaSEPKc
libpt.so.2.10.11:_ZN10PDirectoryaSERK7PString
libpt.so.2.10.11:_ZN10PEthSocket10GetAddressERNS_7AddressE
libpt.so.2.10.11:_ZN10PEthSocket10OpenSocketEv
libpt.so.2.10.11:_ZN10PEthSocket10ReadPacketER10PBYTEArrayRNS_7AddressES3_RtRiRPh
libpt.so.2.10.11:_ZN10PEthSocket12GetIpAddressERN9PIPSocket7AddressE
libpt.so.2.10.11:_ZN10PEthSocket12GetIpAddressERN9PIPSocket7AddressES2_
libpt.so.2.10.11:_ZN10PEthSocket12ResetAdaptorEv
libpt.so.2.10.11:_ZN10PEthSocket13EnumIpAddressEiRN9PIPSocket7AddressES2_
libpt.so.2.10.11:_ZN10PEthSocket14EnumInterfacesEiR7PString
libpt.so.2.10.11:_ZN10PEthSocket4ReadEPvi
libpt.so.2.10.11:_ZN10PEthSocket5CloseEv
libpt.so.2.10.11:_ZN10PEthSocket5Frame5ParseERtRPhRi
libpt.so.2.10.11:_ZN10PEthSocket5WriteEPKvi
libpt.so.2.10.11:_ZN10PEthSocket6ListenEjtN7PSocket11ReusabilityE
libpt.so.2.10.11:_ZN10PEthSocket7AddressC1EPKh
libpt.so.2.10.11:_ZN10PEthSocket7AddressC1ERK7PString
libpt.so.2.10.11:_ZN10PEthSocket7AddressC1ERKS0_
libpt.so.2.10.11:_ZN10PEthSocket7AddressC1Ev
libpt.so.2.10.11:_ZN10PEthSocket7AddressC2EPKh
libpt.so.2.10.11:_ZN10PEthSocket7AddressC2ERK7PString
libpt.so.2.10.11:_ZN10PEthSocket7AddressC2ERKS0_
libpt.so.2.10.11:_ZN10PEthSocket7AddressC2Ev
libpt.so.2.10.11:_ZN10PEthSocket7AddressaSERK7PString
libpt.so.2.10.11:_ZN10PEthSocket7AddressaSERKS0_
libpt.so.2.10.11:_ZN10PEthSocket7ConnectERK7PString
libpt.so.2.10.11:_ZN10PEthSocket9GetFilterERjRt
libpt.so.2.10.11:_ZN10PEthSocket9GetMediumEv
libpt.so.2.10.11:_ZN10PEthSocket9SetFilterEjt
libpt.so.2.10.11:_ZN10PEthSocketC1Eiii
libpt.so.2.10.11:_ZN10PEthSocketC2Eiii
libpt.so.2.10.11:_ZN10PEthSocketD0Ev
libpt.so.2.10.11:_ZN10PEthSocketD1Ev
libpt.so.2.10.11:_ZN10PEthSocketD2Ev
libpt.so.2.10.11:_ZN10PFTPClient13GetFileStatusERK7PStringN4PFTP15DataChannelTypeE
libpt.so.2.10.11:_ZN10PFTPClient13GetSystemTypeEv
libpt.so.2.10.11:_ZN10PFTPClient15ChangeDirectoryERK7PString
libpt.so.2.10.11:_ZN10PFTPClient15CreateDirectoryERK7PString
libpt.so.2.10.11:_ZN10PFTPClient17GetDirectoryNamesEN4PFTP9NameTypesENS0_15DataChannelTypeE
libpt.so.2.10.11:_ZN10PFTPClient17GetDirectoryNamesERK7PStringN4PFTP9NameTypesENS3_15DataChannelTypeE
libpt.so.2.10.11:_ZN10PFTPClient19GetCurrentDirectoryEv
libpt.so.2.10.11:_ZN10PFTPClient20NormalClientTransferEN4PFTP8CommandsERK7PString
libpt.so.2.10.11:_ZN10PFTPClient21PassiveClientTransferEN4PFTP8CommandsERK7PString
libpt.so.2.10.11:_ZN10PFTPClient5CloseEv
libpt.so.2.10.11:_ZN10PFTPClient5LogInERK7PStringS2_
libpt.so.2.10.11:_ZN10PFTPClient6GetURLERK4PURLN4PFTP18RepresentationTypeENS3_15DataChannelTypeE
libpt.so.2.10.11:_ZN10PFTPClient6OnOpenEv
libpt.so.2.10.11:_ZN10PFTPClient7GetFileERK7PStringN4PFTP15DataChannelTypeE
libpt.so.2.10.11:_ZN10PFTPClient7PutFileERK7PStringN4PFTP15DataChannelTypeE
libpt.so.2.10.11:_ZN10PFTPClient7SetTypeEN4PFTP18RepresentationTypeE
libpt.so.2.10.11:_ZN10PFTPClient8OpenHostERK7PStringt
libpt.so.2.10.11:_ZN10PFTPClientC1Ev
libpt.so.2.10.11:_ZN10PFTPClientC2Ev
libpt.so.2.10.11:_ZN10PFTPClientD0Ev
libpt.so.2.10.11:_ZN10PFTPClientD1Ev
libpt.so.2.10.11:_ZN10PFTPClientD2Ev
libpt.so.2.10.11:_ZN10PFTPServer12SendToClientERK9PFilePath
libpt.so.2.10.11:_ZN10PFTPServer13AuthoriseUserERK7PStringS2_Rb
libpt.so.2.10.11:_ZN10PFTPServer13OnSyntaxErrorEi
libpt.so.2.10.11:_ZN10PFTPServer14ProcessCommandEv
libpt.so.2.10.11:_ZN10PFTPServer15DispatchCommandEiRK7PString
libpt.so.2.10.11:_ZN10PFTPServer16OnNotImplementedEi
libpt.so.2.10.11:_ZN10PFTPServer18CheckLoginRequiredEi
libpt.so.2.10.11:_ZN10PFTPServer19OnCommandSuccessfulEi
libpt.so.2.10.11:_ZN10PFTPServer5OnCWDERK15PCaselessString
libpt.so.2.10.11:_ZN10PFTPServer5OnMKDERK15PCaselessString
libpt.so.2.10.11:_ZN10PFTPServer5OnPWDERK15PCaselessString
libpt.so.2.10.11:_ZN10PFTPServer5OnRMDERK15PCaselessString
libpt.so.2.10.11:_ZN10PFTPServer6OnABORERK15PCaselessString
libpt.so.2.10.11:_ZN10PFTPServer6OnACCTERK15PCaselessString
libpt.so.2.10.11:_ZN10PFTPServer6OnALLOERK15PCaselessString
libpt.so.2.10.11:_ZN10PFTPServer6OnAPPEERK15PCaselessString
libpt.so.2.10.11:_ZN10PFTPServer6OnCDUPERK15PCaselessString
libpt.so.2.10.11:_ZN10PFTPServer6OnDELEERK15PCaselessString
libpt.so.2.10.11:_ZN10PFTPServer6OnHELPERK15PCaselessString
libpt.so.2.10.11:_ZN10PFTPServer6OnLISTERK15PCaselessString
libpt.so.2.10.11:_ZN10PFTPServer6OnMODEERK15PCaselessString
libpt.so.2.10.11:_ZN10PFTPServer6OnNLSTERK15PCaselessString
libpt.so.2.10.11:_ZN10PFTPServer6OnNOOPERK15PCaselessString
libpt.so.2.10.11:_ZN10PFTPServer6OnOpenEv
libpt.so.2.10.11:_ZN10PFTPServer6OnPASSERK15PCaselessString
libpt.so.2.10.11:_ZN10PFTPServer6OnPASVERK15PCaselessString
libpt.so.2.10.11:_ZN10PFTPServer6OnPORTERK15PCaselessString
libpt.so.2.10.11:_ZN10PFTPServer6OnQUITERK15PCaselessString
libpt.so.2.10.11:_ZN10PFTPServer6OnREINERK15PCaselessString
libpt.so.2.10.11:_ZN10PFTPServer6OnRESTERK15PCaselessString
libpt.so.2.10.11:_ZN10PFTPServer6OnRETRERK15PCaselessString
libpt.so.2.10.11:_ZN10PFTPServer6OnRNFRERK15PCaselessString
libpt.so.2.10.11:_ZN10PFTPServer6OnRNTOERK15PCaselessString
libpt.so.2.10.11:_ZN10PFTPServer6OnSITEERK15PCaselessString
libpt.so.2.10.11:_ZN10PFTPServer6OnSMNTERK15PCaselessString
libpt.so.2.10.11:_ZN10PFTPServer6OnSTATERK15PCaselessString
libpt.so.2.10.11:_ZN10PFTPServer6OnSTORERK15PCaselessString
libpt.so.2.10.11:_ZN10PFTPServer6OnSTOUERK15PCaselessString
libpt.so.2.10.11:_ZN10PFTPServer6OnSTRUERK15PCaselessString
libpt.so.2.10.11:_ZN10PFTPServer6OnSYSTERK15PCaselessString
libpt.so.2.10.11:_ZN10PFTPServer6OnTYPEERK15PCaselessString
libpt.so.2.10.11:_ZN10PFTPServer6OnUSERERK15PCaselessString
libpt.so.2.10.11:_ZN10PFTPServer7OnErrorEiiPKc
libpt.so.2.10.11:_ZN10PFTPServer9ConstructEv
libpt.so.2.10.11:_ZN10PFTPServer9OnUnknownERK15PCaselessString
libpt.so.2.10.11:_ZN10PFTPServerC1ERK7PString
libpt.so.2.10.11:_ZN10PFTPServerC1Ev
libpt.so.2.10.11:_ZN10PFTPServerC2ERK7PString
libpt.so.2.10.11:_ZN10PFTPServerC2Ev
libpt.so.2.10.11:_ZN10PFTPServerD0Ev
libpt.so.2.10.11:_ZN10PFTPServerD1Ev
libpt.so.2.10.11:_ZN10PFTPServerD2Ev
libpt.so.2.10.11:_ZN10PHTTPField12SetAllValuesERK15PStringToString
libpt.so.2.10.11:_ZN10PHTTPField14LoadFromConfigER7PConfig
libpt.so.2.10.11:_ZN10PHTTPField7SetHelpERK7PStringS2_
libpt.so.2.10.11:_ZN10PHTTPField7SetHelpERK7PStringS2_S2_
libpt.so.2.10.11:_ZN10PHTTPField7SetNameERK7PString
libpt.so.2.10.11:_ZN10PHTTPFieldC1EPKcS1_S1_
libpt.so.2.10.11:_ZN10PHTTPFieldC2EPKcS1_S1_
libpt.so.2.10.11:_ZN10PHTTPSpace11AddResourceEP13PHTTPResourceNS_10AddOptionsE
libpt.so.2.10.11:_ZN10PHTTPSpace11DelResourceERK4PURL
libpt.so.2.10.11:_ZN10PHTTPSpace12CopyContentsERKS_
libpt.so.2.10.11:_ZN10PHTTPSpace12FindResourceERK4PURL
libpt.so.2.10.11:_ZN10PHTTPSpace13CloneContentsEPKS_
libpt.so.2.10.11:_ZN10PHTTPSpace15DestroyContentsEv
libpt.so.2.10.11:_ZN10PHTTPSpace4NodeC1ERK7PStringPS0_
libpt.so.2.10.11:_ZN10PHTTPSpace4NodeC2ERK7PStringPS0_
libpt.so.2.10.11:_ZN10PHTTPSpace4NodeD0Ev
libpt.so.2.10.11:_ZN10PHTTPSpace4NodeD1Ev
libpt.so.2.10.11:_ZN10PHTTPSpace4NodeD2Ev
libpt.so.2.10.11:_ZN10PHTTPSpaceC1Ev
libpt.so.2.10.11:_ZN10PHTTPSpaceC2Ev
libpt.so.2.10.11:_ZN10PHashTable12CopyContentsERKS_
libpt.so.2.10.11:_ZN10PHashTable13CloneContentsEPKS_
libpt.so.2.10.11:_ZN10PHashTable15DestroyContentsEv
libpt.so.2.10.11:_ZN10PHashTable7SetSizeEi
libpt.so.2.10.11:_ZN10PHashTableC1Ev
libpt.so.2.10.11:_ZN10PHashTableC2Ev
libpt.so.2.10.11:_ZN10PNatMethod13SetPortRangesEtttt
libpt.so.2.10.11:_ZN10PNatMethod14RandomPortPairEjj
libpt.so.2.10.11:_ZN10PNatMethod16CreateSocketPairERP10PUDPSocketS2_RKN9PIPSocket7AddressEPv
libpt.so.2.10.11:_ZN10PNatMethod21SetAlternateAddressesERK12PStringArrayPv
libpt.so.2.10.11:_ZN10PNatMethod6CreateERK7PStringP14PPluginManager
libpt.so.2.10.11:_ZN10PNatMethod8ActivateEb
libpt.so.2.10.11:_ZN10PNatMethodC1Ev
libpt.so.2.10.11:_ZN10PNatMethodC2Ev
libpt.so.2.10.11:_ZN10PNatMethodD0Ev
libpt.so.2.10.11:_ZN10PNatMethodD1Ev
libpt.so.2.10.11:_ZN10PNatMethodD2Ev
libpt.so.2.10.11:_ZN10PSNMP_PDUs12CreateObjectEv
libpt.so.2.10.11:_ZN10PSNMP_PDUs6DecodeER11PASN_Stream
libpt.so.2.10.11:_ZN10PSNMP_PDUsC1EjN11PASN_Object8TagClassE
libpt.so.2.10.11:_ZN10PSNMP_PDUsC2EjN11PASN_Object8TagClassE
libpt.so.2.10.11:_ZN10PSNMP_PDUscvR14PSNMP_Trap_PDUEv
libpt.so.2.10.11:_ZN10PSNMP_PDUscvR20PSNMP_GetRequest_PDUEv
libpt.so.2.10.11:_ZN10PSNMP_PDUscvR20PSNMP_SetRequest_PDUEv
libpt.so.2.10.11:_ZN10PSNMP_PDUscvR21PSNMP_GetResponse_PDUEv
libpt.so.2.10.11:_ZN10PSNMP_PDUscvR24PSNMP_GetNextRequest_PDUEv
libpt.so.2.10.11:_ZN10PSemaphore4WaitERK13PTimeInterval
libpt.so.2.10.11:_ZN10PSemaphore4WaitEv
libpt.so.2.10.11:_ZN10PSemaphore6SignalEv
libpt.so.2.10.11:_ZN10PSemaphoreC1ENS_7PXClassE
libpt.so.2.10.11:_ZN10PSemaphoreC1ERKS_
libpt.so.2.10.11:_ZN10PSemaphoreC1Ejj
libpt.so.2.10.11:_ZN10PSemaphoreC2ENS_7PXClassE
libpt.so.2.10.11:_ZN10PSemaphoreC2ERKS_
libpt.so.2.10.11:_ZN10PSemaphoreC2Ejj
libpt.so.2.10.11:_ZN10PSemaphoreD0Ev
libpt.so.2.10.11:_ZN10PSemaphoreD1Ev
libpt.so.2.10.11:_ZN10PSemaphoreD2Ev
libpt.so.2.10.11:_ZN10PStringSet7ExcludeERK7PString
libpt.so.2.10.11:_ZN10PStringSet7IncludeERK7PString
libpt.so.2.10.11:_ZN10PStringSet8ReadFromERSi
libpt.so.2.10.11:_ZN10PStringSetC1ERK11PStringList
libpt.so.2.10.11:_ZN10PStringSetC1ERK12PStringArray
libpt.so.2.10.11:_ZN10PStringSetC1ERK7PString
libpt.so.2.10.11:_ZN10PStringSetC1EiPKPKcb
libpt.so.2.10.11:_ZN10PStringSetC2ERK11PStringList
libpt.so.2.10.11:_ZN10PStringSetC2ERK12PStringArray
libpt.so.2.10.11:_ZN10PStringSetC2ERK7PString
libpt.so.2.10.11:_ZN10PStringSetC2EiPKPKcb
libpt.so.2.10.11:_ZN10PStringSetmIERK7PString
libpt.so.2.10.11:_ZN10PStringSetpLERK7PString
libpt.so.2.10.11:_ZN10PSyncPoint4WaitERK13PTimeInterval
libpt.so.2.10.11:_ZN10PSyncPoint4WaitEv
libpt.so.2.10.11:_ZN10PSyncPoint6SignalEv
libpt.so.2.10.11:_ZN10PSyncPointC1ERKS_
libpt.so.2.10.11:_ZN10PSyncPointC1Ev
libpt.so.2.10.11:_ZN10PSyncPointC2ERKS_
libpt.so.2.10.11:_ZN10PSyncPointC2Ev
libpt.so.2.10.11:_ZN10PSyncPointD0Ev
libpt.so.2.10.11:_ZN10PSyncPointD1Ev
libpt.so.2.10.11:_ZN10PSyncPointD2Ev
libpt.so.2.10.11:_ZN10PSystemLog6Buffer4syncEv
libpt.so.2.10.11:_ZN10PSystemLog6Buffer8overflowEi
libpt.so.2.10.11:_ZN10PSystemLog6Buffer9underflowEv
libpt.so.2.10.11:_ZN10PSystemLog6BufferC1Ev
libpt.so.2.10.11:_ZN10PSystemLog6BufferC2Ev
libpt.so.2.10.11:_ZN10PSystemLog9GetTargetEv
libpt.so.2.10.11:_ZN10PSystemLog9SetTargetEP16PSystemLogTargetb
libpt.so.2.10.11:_ZN10PSystemLogC1ENS_5LevelE
libpt.so.2.10.11:_ZN10PSystemLogC1ERKS_
libpt.so.2.10.11:_ZN10PSystemLogC2ENS_5LevelE
libpt.so.2.10.11:_ZN10PSystemLogC2ERKS_
libpt.so.2.10.11:_ZN10PSystemLogaSERKS_
libpt.so.2.10.11:_ZN10PTCPSocket10OpenSocketEi
libpt.so.2.10.11:_ZN10PTCPSocket10OpenSocketEv
libpt.so.2.10.11:_ZN10PTCPSocket11OnOutOfBandEPKvi
libpt.so.2.10.11:_ZN10PTCPSocket14WriteOutOfBandEPKvi
libpt.so.2.10.11:_ZN10PTCPSocket4ReadEPvi
libpt.so.2.10.11:_ZN10PTCPSocket5WriteEPKvi
libpt.so.2.10.11:_ZN10PTCPSocket6AcceptER7PSocket
libpt.so.2.10.11:_ZN10PTCPSocket6ListenERKN9PIPSocket7AddressEjtN7PSocket11ReusabilityE
libpt.so.2.10.11:_ZN10PTCPSocket6ListenEjtN7PSocket11ReusabilityE
libpt.so.2.10.11:_ZN10PTCPSocketC1ER7PSocket
libpt.so.2.10.11:_ZN10PTCPSocketC1ERK7PString
libpt.so.2.10.11:_ZN10PTCPSocketC1ERK7PStringS2_
libpt.so.2.10.11:_ZN10PTCPSocketC1ERK7PStringt
libpt.so.2.10.11:_ZN10PTCPSocketC1ERS_
libpt.so.2.10.11:_ZN10PTCPSocketC1Et
libpt.so.2.10.11:_ZN10PTCPSocketC2ER7PSocket
libpt.so.2.10.11:_ZN10PTCPSocketC2ERK7PString
libpt.so.2.10.11:_ZN10PTCPSocketC2ERK7PStringS2_
libpt.so.2.10.11:_ZN10PTCPSocketC2ERK7PStringt
libpt.so.2.10.11:_ZN10PTCPSocketC2ERS_
libpt.so.2.10.11:_ZN10PTCPSocketC2Et
libpt.so.2.10.11:_ZN10PTEACypher10InitialiseEb
libpt.so.2.10.11:_ZN10PTEACypher11DecodeBlockEPKvPv
libpt.so.2.10.11:_ZN10PTEACypher11EncodeBlockEPKvPv
libpt.so.2.10.11:_ZN10PTEACypher11GenerateKeyERNS_3KeyE
libpt.so.2.10.11:_ZN10PTEACypher6SetKeyERKNS_3KeyE
libpt.so.2.10.11:_ZN10PTEACypherC1EN7PCypher14BlockChainModeE
libpt.so.2.10.11:_ZN10PTEACypherC1ERKNS_3KeyEN7PCypher14BlockChainModeE
libpt.so.2.10.11:_ZN10PTEACypherC2EN7PCypher14BlockChainModeE
libpt.so.2.10.11:_ZN10PTEACypherC2ERKNS_3KeyEN7PCypher14BlockChainModeE
libpt.so.2.10.11:_ZN10PTimerList12QueueRequestENS_11RequestType6ActionEP6PTimerb
libpt.so.2.10.11:_ZN10PTimerList14AddActiveTimerERKNS_11RequestTypeE
libpt.so.2.10.11:_ZN10PTimerList17ProcessTimerQueueEv
libpt.so.2.10.11:_ZN10PTimerList7ProcessEv
libpt.so.2.10.11:_ZN10PTimerListC1Ev
libpt.so.2.10.11:_ZN10PTimerListC2Ev
libpt.so.2.10.11:_ZN10PUDPSocket10EnableGQoSEv
libpt.so.2.10.11:_ZN10PUDPSocket10GetQoSSpecEv
libpt.so.2.10.11:_ZN10PUDPSocket10OpenSocketEi
libpt.so.2.10.11:_ZN10PUDPSocket10OpenSocketEv
libpt.so.2.10.11:_ZN10PUDPSocket10SupportQoSERKN9PIPSocket7AddressE
libpt.so.2.10.11:_ZN10PUDPSocket12DoPseudoReadERi
libpt.so.2.10.11:_ZN10PUDPSocket13ModifyQoSSpecEP4PQoS
libpt.so.2.10.11:_ZN10PUDPSocket14OpenSocketGQOSEiii
libpt.so.2.10.11:_ZN10PUDPSocket14SetSendAddressERKN9PIPSocket7AddressEt
libpt.so.2.10.11:_ZN10PUDPSocket18IsAlternateAddressERKN9PIPSocket7AddressEt
libpt.so.2.10.11:_ZN10PUDPSocket4ReadEPvi
libpt.so.2.10.11:_ZN10PUDPSocket5WriteEPKvi
libpt.so.2.10.11:_ZN10PUDPSocket7ConnectERK7PString
libpt.so.2.10.11:_ZN10PUDPSocket8ApplyQoSEv
libpt.so.2.10.11:_ZN10PUDPSocketC1EP4PQoSti
libpt.so.2.10.11:_ZN10PUDPSocketC1ERK7PStringP4PQoSi
libpt.so.2.10.11:_ZN10PUDPSocketC1ERK7PStringS2_
libpt.so.2.10.11:_ZN10PUDPSocketC1ERK7PStringt
libpt.so.2.10.11:_ZN10PUDPSocketC1Eti
libpt.so.2.10.11:_ZN10PUDPSocketC2EP4PQoSti
libpt.so.2.10.11:_ZN10PUDPSocketC2ERK7PStringP4PQoSi
libpt.so.2.10.11:_ZN10PUDPSocketC2ERK7PStringS2_
libpt.so.2.10.11:_ZN10PUDPSocketC2ERK7PStringt
libpt.so.2.10.11:_ZN10PUDPSocketC2Eti
libpt.so.2.10.11:_ZN10PVXMLCache14CreateFilenameERK7PStringS2_S2_
libpt.so.2.10.11:_ZN10PVXMLCache16GetResourceCacheEv
libpt.so.2.10.11:_ZN10PVXMLCache17GetRandomFilenameERK7PStringS2_
libpt.so.2.10.11:_ZN10PVXMLCache3GetERK7PStringS2_S2_RS0_R9PFilePath
libpt.so.2.10.11:_ZN10PVXMLCache3PutERK7PStringS2_S2_S2_RK9PFilePathRS3_
libpt.so.2.10.11:_ZN10PVXMLCacheC1ERK10PDirectory
libpt.so.2.10.11:_ZN10PVXMLCacheC2ERK10PDirectory
libpt.so.2.10.11:_ZN10PVideoFile10WriteFrameEPKv
libpt.so.2.10.11:_ZN10PVideoFile11SetPositionElN5PFile18FilePositionOriginE
libpt.so.2.10.11:_ZN10PVideoFile12SetFrameRateEj
libpt.so.2.10.11:_ZN10PVideoFile12SetFrameSizeEjj
libpt.so.2.10.11:_ZN10PVideoFile4OpenERK9PFilePathN5PFile8OpenModeEi
libpt.so.2.10.11:_ZN10PVideoFile9ReadFrameEPv
libpt.so.2.10.11:_ZN10PVideoFile9SetLengthEl
libpt.so.2.10.11:_ZN10PVideoFileC1Ev
libpt.so.2.10.11:_ZN10PVideoFileC2Ev
libpt.so.2.10.11:_ZN10PVideoFont13GetLetterDataEc
libpt.so.2.10.11:_ZN10PXMLObject8SetDirtyEv
libpt.so.2.10.11:_ZN10PXMLParser10EndElementEPKc
libpt.so.2.10.11:_ZN10PXMLParser10SetXMLTreeEP11PXMLElement
libpt.so.2.10.11:_ZN10PXMLParser12GetErrorInfoER7PStringRjS2_
libpt.so.2.10.11:_ZN10PXMLParser12StartElementEPKcPS1_
libpt.so.2.10.11:_ZN10PXMLParser14EndDocTypeDeclEv
libpt.so.2.10.11:_ZN10PXMLParser16AddCharacterDataEPKci
libpt.so.2.10.11:_ZN10PXMLParser16StartDocTypeDeclEPKcS1_S1_i
libpt.so.2.10.11:_ZN10PXMLParser23EndNamespaceDeclHandlerEPKc
libpt.so.2.10.11:_ZN10PXMLParser25StartNamespaceDeclHandlerEPKcS1_
libpt.so.2.10.11:_ZN10PXMLParser5ParseEPKcib
libpt.so.2.10.11:_ZN10PXMLParser7XmlDeclEPKcS1_i
libpt.so.2.10.11:_ZN10PXMLParserC1Ei
libpt.so.2.10.11:_ZN10PXMLParserC2Ei
libpt.so.2.10.11:_ZN10PXMLParserD0Ev
libpt.so.2.10.11:_ZN10PXMLParserD1Ev
libpt.so.2.10.11:_ZN10PXMLParserD2Ev
libpt.so.2.10.11:_ZN11PASNInteger16GetEncodedLengthEv
libpt.so.2.10.11:_ZN11PASNInteger6EncodeER10PBYTEArray
libpt.so.2.10.11:_ZN11PASNIntegerC1ERK10PBYTEArrayRi
libpt.so.2.10.11:_ZN11PASNIntegerC1Ei
libpt.so.2.10.11:_ZN11PASNIntegerC2ERK10PBYTEArrayRi
libpt.so.2.10.11:_ZN11PASNIntegerC2Ei
libpt.so.2.10.11:_ZN11PASN_Choice6DecodeER11PASN_Stream
libpt.so.2.10.11:_ZN11PASN_Choice6SetTagEjN11PASN_Object8TagClassE
libpt.so.2.10.11:_ZN11PASN_Choice9DecodePERER11PPER_Stream
libpt.so.2.10.11:_ZN11PASN_Choice9DecodeXERER11PXER_Stream
libpt.so.2.10.11:_ZN11PASN_ChoiceC1ERKS_
libpt.so.2.10.11:_ZN11PASN_ChoiceC1EjN11PASN_Object8TagClassEjb
libpt.so.2.10.11:_ZN11PASN_ChoiceC1EjN11PASN_Object8TagClassEjbPK10PASN_Namesj
libpt.so.2.10.11:_ZN11PASN_ChoiceC1Ejb
libpt.so.2.10.11:_ZN11PASN_ChoiceC2ERKS_
libpt.so.2.10.11:_ZN11PASN_ChoiceC2EjN11PASN_Object8TagClassEjb
libpt.so.2.10.11:_ZN11PASN_ChoiceC2EjN11PASN_Object8TagClassEjbPK10PASN_Namesj
libpt.so.2.10.11:_ZN11PASN_ChoiceC2Ejb
libpt.so.2.10.11:_ZN11PASN_ChoiceD0Ev
libpt.so.2.10.11:_ZN11PASN_ChoiceD1Ev
libpt.so.2.10.11:_ZN11PASN_ChoiceD2Ev
libpt.so.2.10.11:_ZN11PASN_ChoiceaSERKS_
libpt.so.2.10.11:_ZN11PASN_ChoicecvR12PASN_BooleanEv
libpt.so.2.10.11:_ZN11PASN_ChoicecvR12PASN_IntegerEv
libpt.so.2.10.11:_ZN11PASN_ChoicecvR13PASN_ObjectIdEv
libpt.so.2.10.11:_ZN11PASN_ChoicecvR13PASN_SequenceEv
libpt.so.2.10.11:_ZN11PASN_ChoicecvR14PASN_BMPStringEv
libpt.so.2.10.11:_ZN11PASN_ChoicecvR14PASN_BitStringEv
libpt.so.2.10.11:_ZN11PASN_ChoicecvR14PASN_IA5StringEv
libpt.so.2.10.11:_ZN11PASN_ChoicecvR16PASN_EnumerationEv
libpt.so.2.10.11:_ZN11PASN_ChoicecvR16PASN_OctetStringEv
libpt.so.2.10.11:_ZN11PASN_ChoicecvR18PASN_GeneralStringEv
libpt.so.2.10.11:_ZN11PASN_ChoicecvR18PASN_NumericStringEv
libpt.so.2.10.11:_ZN11PASN_ChoicecvR18PASN_VisibleStringEv
libpt.so.2.10.11:_ZN11PASN_ChoicecvR20PASN_PrintableStringEv
libpt.so.2.10.11:_ZN11PASN_ChoicecvR9PASN_NullEv
libpt.so.2.10.11:_ZN11PASN_ChoicecvR9PASN_RealEv
libpt.so.2.10.11:_ZN11PASN_Object15SetCharacterSetENS_14ConstraintTypeEPKc
libpt.so.2.10.11:_ZN11PASN_Object15SetCharacterSetENS_14ConstraintTypeEjj
libpt.so.2.10.11:_ZN11PASN_Object19GetMaximumArraySizeEv
libpt.so.2.10.11:_ZN11PASN_Object19SetConstraintBoundsENS_14ConstraintTypeEij
libpt.so.2.10.11:_ZN11PASN_Object19SetMaximumArraySizeEi
libpt.so.2.10.11:_ZN11PASN_Object20GetMaximumStringSizeEv
libpt.so.2.10.11:_ZN11PASN_Object20SetMaximumStringSizeEi
libpt.so.2.10.11:_ZN11PASN_Object6SetTagEjNS_8TagClassE
libpt.so.2.10.11:_ZN11PASN_ObjectC1EjNS_8TagClassEb
libpt.so.2.10.11:_ZN11PASN_ObjectC2EjNS_8TagClassEb
libpt.so.2.10.11:_ZN11PASN_Stream10ByteDecodeEv
libpt.so.2.10.11:_ZN11PASN_Stream10ByteEncodeEj
libpt.so.2.10.11:_ZN11PASN_Stream11BlockDecodeEPhj
libpt.so.2.10.11:_ZN11PASN_Stream11BlockEncodeEPKhi
libpt.so.2.10.11:_ZN11PASN_Stream11SetPositionEi
libpt.so.2.10.11:_ZN11PASN_Stream12ResetDecoderEv
libpt.so.2.10.11:_ZN11PASN_Stream13BeginEncodingEv
libpt.so.2.10.11:_ZN11PASN_Stream16CompleteEncodingEv
libpt.so.2.10.11:_ZN11PASN_Stream9ByteAlignEv
libpt.so.2.10.11:_ZN11PASN_Stream9ConstructEv
libpt.so.2.10.11:_ZN11PASN_StreamC1EPKhi
libpt.so.2.10.11:_ZN11PASN_StreamC1ERK10PBYTEArray
libpt.so.2.10.11:_ZN11PASN_StreamC1Ev
libpt.so.2.10.11:_ZN11PASN_StreamC2EPKhi
libpt.so.2.10.11:_ZN11PASN_StreamC2ERK10PBYTEArray
libpt.so.2.10.11:_ZN11PASN_StreamC2Ev
libpt.so.2.10.11:_ZN11PBER_Stream10NullDecodeER9PASN_Null
libpt.so.2.10.11:_ZN11PBER_Stream10NullEncodeERK9PASN_Null
libpt.so.2.10.11:_ZN11PBER_Stream10RealDecodeER9PASN_Real
libpt.so.2.10.11:_ZN11PBER_Stream10RealEncodeERK9PASN_Real
libpt.so.2.10.11:_ZN11PBER_Stream11ArrayDecodeER10PASN_Array
libpt.so.2.10.11:_ZN11PBER_Stream11ArrayEncodeERK10PASN_Array
libpt.so.2.10.11:_ZN11PBER_Stream12ChoiceDecodeER11PASN_Choice
libpt.so.2.10.11:_ZN11PBER_Stream12ChoiceEncodeERK11PASN_Choice
libpt.so.2.10.11:_ZN11PBER_Stream12HeaderDecodeER11PASN_ObjectRj
libpt.so.2.10.11:_ZN11PBER_Stream12HeaderDecodeERjRN11PASN_Object8TagClassERbS0_
libpt.so.2.10.11:_ZN11PBER_Stream12HeaderEncodeERK11PASN_Object
libpt.so.2.10.11:_ZN11PBER_Stream13BooleanDecodeER12PASN_Boolean
libpt.so.2.10.11:_ZN11PBER_Stream13BooleanEncodeERK12PASN_Boolean
libpt.so.2.10.11:_ZN11PBER_Stream13IntegerDecodeER12PASN_Integer
libpt.so.2.10.11:_ZN11PBER_Stream13IntegerEncodeERK12PASN_Integer
libpt.so.2.10.11:_ZN11PBER_Stream14ObjectIdDecodeER13PASN_ObjectId
libpt.so.2.10.11:_ZN11PBER_Stream14ObjectIdEncodeERK13PASN_ObjectId
libpt.so.2.10.11:_ZN11PBER_Stream15BMPStringDecodeER14PASN_BMPString
libpt.so.2.10.11:_ZN11PBER_Stream15BMPStringEncodeERK14PASN_BMPString
libpt.so.2.10.11:_ZN11PBER_Stream15BitStringDecodeER14PASN_BitString
libpt.so.2.10.11:_ZN11PBER_Stream15BitStringEncodeERK14PASN_BitString
libpt.so.2.10.11:_ZN11PBER_Stream17EnumerationDecodeER16PASN_Enumeration
libpt.so.2.10.11:_ZN11PBER_Stream17EnumerationEncodeERK16PASN_Enumeration
libpt.so.2.10.11:_ZN11PBER_Stream17OctetStringDecodeER16PASN_OctetString
libpt.so.2.10.11:_ZN11PBER_Stream17OctetStringEncodeERK16PASN_OctetString
libpt.so.2.10.11:_ZN11PBER_Stream19SequenceKnownDecodeER13PASN_SequenceiR11PASN_Object
libpt.so.2.10.11:_ZN11PBER_Stream19SequenceKnownEncodeERK13PASN_SequenceiRK11PASN_Object
libpt.so.2.10.11:_ZN11PBER_Stream21SequenceUnknownDecodeER13PASN_Sequence
libpt.so.2.10.11:_ZN11PBER_Stream21SequenceUnknownEncodeERK13PASN_Sequence
libpt.so.2.10.11:_ZN11PBER_Stream22SequencePreambleDecodeER13PASN_Sequence
libpt.so.2.10.11:_ZN11PBER_Stream22SequencePreambleEncodeERK13PASN_Sequence
libpt.so.2.10.11:_ZN11PBER_Stream23ConstrainedStringDecodeER22PASN_ConstrainedString
libpt.so.2.10.11:_ZN11PBER_Stream23ConstrainedStringEncodeERK22PASN_ConstrainedString
libpt.so.2.10.11:_ZN11PBER_Stream4ReadER8PChannel
libpt.so.2.10.11:_ZN11PBER_Stream5WriteER8PChannel
libpt.so.2.10.11:_ZN11PBER_StreamC1EPKhi
libpt.so.2.10.11:_ZN11PBER_StreamC1ERK10PBYTEArray
libpt.so.2.10.11:_ZN11PBER_StreamC1Ev
libpt.so.2.10.11:_ZN11PBER_StreamC2EPKhi
libpt.so.2.10.11:_ZN11PBER_StreamC2ERK10PBYTEArray
libpt.so.2.10.11:_ZN11PBER_StreamC2Ev
libpt.so.2.10.11:_ZN11PBER_StreamaSERK10PBYTEArray
libpt.so.2.10.11:_ZN11PCollection18AllowDeleteObjectsEb
libpt.so.2.10.11:_ZN11PCollection21DisallowDeleteObjectsEv
libpt.so.2.10.11:_ZN11PCollection9RemoveAllEv
libpt.so.2.10.11:_ZN11PCollectionC1Ei
libpt.so.2.10.11:_ZN11PCollectionC1EiPKS_
libpt.so.2.10.11:_ZN11PCollectionC2Ei
libpt.so.2.10.11:_ZN11PCollectionC2EiPKS_
libpt.so.2.10.11:_ZN11PConfigArgs4SaveERK7PString
libpt.so.2.10.11:_ZN11PConfigArgsC1ERK8PArgList
libpt.so.2.10.11:_ZN11PConfigArgsC2ERK8PArgList
libpt.so.2.10.11:_ZN11PConfigPage12OnLoadedTextER12PHTTPRequestR7PString
libpt.so.2.10.11:_ZN11PConfigPage17GetExpirationDateER5PTime
libpt.so.2.10.11:_ZN11PConfigPage4PostER12PHTTPRequestRK15PStringToStringR5PHTML
libpt.so.2.10.11:_ZN11PConfigPage6OnPOSTER11PHTTPServerRK4PURLRK9PMIMEInfoRK15PStringToStringRK19PHTTPConnectionInfo
libpt.so.2.10.11:_ZN11PConfigPageC1ER19PHTTPServiceProcessRK7PStringRK14PHTTPAuthority
libpt.so.2.10.11:_ZN11PConfigPageC1ER19PHTTPServiceProcessRK7PStringS4_RK14PHTTPAuthority
libpt.so.2.10.11:_ZN11PConfigPageC2ER19PHTTPServiceProcessRK7PStringRK14PHTTPAuthority
libpt.so.2.10.11:_ZN11PConfigPageC2ER19PHTTPServiceProcessRK7PStringS4_RK14PHTTPAuthority
libpt.so.2.10.11:_ZN11PHTTPClient11GetDocumentERK4PURLR9PMIMEInfo
libpt.so.2.10.11:_ZN11PHTTPClient11GetDocumentERK4PURLR9PMIMEInfoS4_
libpt.so.2.10.11:_ZN11PHTTPClient11PutDocumentERK4PURLR9PMIMEInfoS4_
libpt.so.2.10.11:_ZN11PHTTPClient12ReadResponseER9PMIMEInfo
libpt.so.2.10.11:_ZN11PHTTPClient12WriteCommandEN5PHTTP8CommandsERK7PStringR9PMIMEInfoS4_
libpt.so.2.10.11:_ZN11PHTTPClient12WriteCommandERK7PStringS2_R9PMIMEInfoS2_
libpt.so.2.10.11:_ZN11PHTTPClient13AssureConnectERK4PURLR9PMIMEInfo
libpt.so.2.10.11:_ZN11PHTTPClient14DeleteDocumentERK4PURL
libpt.so.2.10.11:_ZN11PHTTPClient14ExecuteCommandEN5PHTTP8CommandsERK4PURLR9PMIMEInfoRK7PStringS6_
libpt.so.2.10.11:_ZN11PHTTPClient14ExecuteCommandERK7PStringRK4PURLR9PMIMEInfoS2_S7_
libpt.so.2.10.11:_ZN11PHTTPClient15GetTextDocumentERK4PURLR7PStringRKS3_
libpt.so.2.10.11:_ZN11PHTTPClient15PutTextDocumentERK4PURLRK7PStringS5_
libpt.so.2.10.11:_ZN11PHTTPClient15ReadContentBodyER9PMIMEInfo
libpt.so.2.10.11:_ZN11PHTTPClient15ReadContentBodyER9PMIMEInfoR10PBYTEArray
libpt.so.2.10.11:_ZN11PHTTPClient15ReadContentBodyER9PMIMEInfoR7PString
libpt.so.2.10.11:_ZN11PHTTPClient21SetAuthenticationInfoERK7PStringS2_
libpt.so.2.10.11:_ZN11PHTTPClient23InternalReadContentBodyER9PMIMEInfoP14PAbstractArray
libpt.so.2.10.11:_ZN11PHTTPClient8PostDataERK4PURLR9PMIMEInfoRK7PString
libpt.so.2.10.11:_ZN11PHTTPClient8PostDataERK4PURLR9PMIMEInfoRK7PStringS4_
libpt.so.2.10.11:_ZN11PHTTPClient8PostDataERK4PURLR9PMIMEInfoRK7PStringS4_RS5_
libpt.so.2.10.11:_ZN11PHTTPClient8PostDataERK4PURLRK15PStringToString
libpt.so.2.10.11:_ZN11PHTTPClient9GetHeaderERK4PURLR9PMIMEInfoS4_
libpt.so.2.10.11:_ZN11PHTTPClientC1ERK7PString
libpt.so.2.10.11:_ZN11PHTTPClientC2ERK7PString
libpt.so.2.10.11:_ZN11PHTTPConfig12OnLoadedTextER12PHTTPRequestR7PString
libpt.so.2.10.11:_ZN11PHTTPConfig14LoadFromConfigEv
libpt.so.2.10.11:_ZN11PHTTPConfig15AddNewKeyFieldsEP10PHTTPFieldS1_
libpt.so.2.10.11:_ZN11PHTTPConfig15AddSectionFieldEP10PHTTPFieldPKcS3_
libpt.so.2.10.11:_ZN11PHTTPConfig4PostER12PHTTPRequestRK15PStringToStringR5PHTML
libpt.so.2.10.11:_ZN11PHTTPConfig9ConstructEv
libpt.so.2.10.11:_ZN11PHTTPConfigC1ERK4PURLRK7PString
libpt.so.2.10.11:_ZN11PHTTPConfigC1ERK4PURLRK7PStringRK14PHTTPAuthority
libpt.so.2.10.11:_ZN11PHTTPConfigC1ERK4PURLRK7PStringS5_
libpt.so.2.10.11:_ZN11PHTTPConfigC1ERK4PURLRK7PStringS5_RK14PHTTPAuthority
libpt.so.2.10.11:_ZN11PHTTPConfigC2ERK4PURLRK7PString
libpt.so.2.10.11:_ZN11PHTTPConfigC2ERK4PURLRK7PStringRK14PHTTPAuthority
libpt.so.2.10.11:_ZN11PHTTPConfigC2ERK4PURLRK7PStringS5_
libpt.so.2.10.11:_ZN11PHTTPConfigC2ERK4PURLRK7PStringS5_RK14PHTTPAuthority
libpt.so.2.10.11:_ZN11PHTTPServer11SetURLSpaceERK10PHTTPSpace
libpt.so.2.10.11:_ZN11PHTTPServer13StartResponseEN5PHTTP10StatusCodeER9PMIMEInfol
libpt.so.2.10.11:_ZN11PHTTPServer14ProcessCommandEv
libpt.so.2.10.11:_ZN11PHTTPServer14ReadEntityBodyEv
libpt.so.2.10.11:_ZN11PHTTPServer18SetDefaultMIMEInfoER9PMIMEInfoRK19PHTTPConnectionInfo
libpt.so.2.10.11:_ZN11PHTTPServer5OnGETERK4PURLRK9PMIMEInfoRK19PHTTPConnectionInfo
libpt.so.2.10.11:_ZN11PHTTPServer6OnHEADERK4PURLRK9PMIMEInfoRK19PHTTPConnectionInfo
libpt.so.2.10.11:_ZN11PHTTPServer6OnPOSTERK4PURLRK9PMIMEInfoRK15PStringToStringRK19PHTTPConnectionInfo
libpt.so.2.10.11:_ZN11PHTTPServer7OnErrorEN5PHTTP10StatusCodeERK15PCaselessStringRK19PHTTPConnectionInfo
libpt.so.2.10.11:_ZN11PHTTPServer7OnProxyERK19PHTTPConnectionInfo
libpt.so.2.10.11:_ZN11PHTTPServer9ConstructEv
libpt.so.2.10.11:_ZN11PHTTPServer9OnUnknownERK15PCaselessStringRK19PHTTPConnectionInfo
libpt.so.2.10.11:_ZN11PHTTPServerC1ERK10PHTTPSpace
libpt.so.2.10.11:_ZN11PHTTPServerC1Ev
libpt.so.2.10.11:_ZN11PHTTPServerC2ERK10PHTTPSpace
libpt.so.2.10.11:_ZN11PHTTPServerC2Ev
libpt.so.2.10.11:_ZN11PHTTPString11LoadHeadersER12PHTTPRequest
libpt.so.2.10.11:_ZN11PHTTPString8LoadTextER12PHTTPRequest
libpt.so.2.10.11:_ZN11PHTTPStringC1ERK4PURL
libpt.so.2.10.11:_ZN11PHTTPStringC1ERK4PURLRK14PHTTPAuthority
libpt.so.2.10.11:_ZN11PHTTPStringC1ERK4PURLRK7PString
libpt.so.2.10.11:_ZN11PHTTPStringC1ERK4PURLRK7PStringRK14PHTTPAuthority
libpt.so.2.10.11:_ZN11PHTTPStringC1ERK4PURLRK7PStringS5_
libpt.so.2.10.11:_ZN11PHTTPStringC1ERK4PURLRK7PStringS5_RK14PHTTPAuthority
libpt.so.2.10.11:_ZN11PHTTPStringC2ERK4PURL
libpt.so.2.10.11:_ZN11PHTTPStringC2ERK4PURLRK14PHTTPAuthority
libpt.so.2.10.11:_ZN11PHTTPStringC2ERK4PURLRK7PString
libpt.so.2.10.11:_ZN11PHTTPStringC2ERK4PURLRK7PStringRK14PHTTPAuthority
libpt.so.2.10.11:_ZN11PHTTPStringC2ERK4PURLRK7PStringS5_
libpt.so.2.10.11:_ZN11PHTTPStringC2ERK4PURLRK7PStringS5_RK14PHTTPAuthority
libpt.so.2.10.11:_ZN11PHostByAddr11GetHostNameERKN9PIPSocket7AddressER7PString
libpt.so.2.10.11:_ZN11PHostByAddr14GetHostAddressERKN9PIPSocket7AddressERS1_
libpt.so.2.10.11:_ZN11PHostByAddr14GetHostAliasesERKN9PIPSocket7AddressER12PStringArray
libpt.so.2.10.11:_ZN11PHostByAddr7GetHostERKN9PIPSocket7AddressE
libpt.so.2.10.11:_ZN11PHostByName11GetHostNameERK7PStringRS0_
libpt.so.2.10.11:_ZN11PHostByName14GetHostAddressERK7PStringRN9PIPSocket7AddressE
libpt.so.2.10.11:_ZN11PHostByName14GetHostAliasesERK7PStringR12PStringArray
libpt.so.2.10.11:_ZN11PHostByName7GetHostERK7PString
libpt.so.2.10.11:_ZN11PICMPSocket10OpenSocketEi
libpt.so.2.10.11:_ZN11PICMPSocket10OpenSocketEv
libpt.so.2.10.11:_ZN11PICMPSocket4PingERK7PString
libpt.so.2.10.11:_ZN11PICMPSocket4PingERK7PStringRNS_8PingInfoE
libpt.so.2.10.11:_ZN11PICMPSocket8PingInfoC1Et
libpt.so.2.10.11:_ZN11PICMPSocket8PingInfoC2Et
libpt.so.2.10.11:_ZN11PICMPSocket8ReadPingERNS_8PingInfoE
libpt.so.2.10.11:_ZN11PICMPSocket9WritePingERK7PStringRNS_8PingInfoE
libpt.so.2.10.11:_ZN11PICMPSocketC1Ev
libpt.so.2.10.11:_ZN11PICMPSocketC2Ev
libpt.so.2.10.11:_ZN11PMemoryFile11SetPositionElN5PFile18FilePositionOriginE
libpt.so.2.10.11:_ZN11PMemoryFile4OpenEN5PFile8OpenModeEi
libpt.so.2.10.11:_ZN11PMemoryFile4OpenERK9PFilePathN5PFile8OpenModeEi
libpt.so.2.10.11:_ZN11PMemoryFile4ReadEPvi
libpt.so.2.10.11:_ZN11PMemoryFile5CloseEv
libpt.so.2.10.11:_ZN11PMemoryFile5WriteEPKvi
libpt.so.2.10.11:_ZN11PMemoryFile9SetLengthEl
libpt.so.2.10.11:_ZN11PMemoryFileC1ERK10PBYTEArray
libpt.so.2.10.11:_ZN11PMemoryFileC1Ev
libpt.so.2.10.11:_ZN11PMemoryFileC2ERK10PBYTEArray
libpt.so.2.10.11:_ZN11PMemoryFileC2Ev
libpt.so.2.10.11:_ZN11PMemoryFileD0Ev
libpt.so.2.10.11:_ZN11PMemoryFileD1Ev
libpt.so.2.10.11:_ZN11PMemoryFileD2Ev
libpt.so.2.10.11:_ZN11POrdinalKeyC1Ei
libpt.so.2.10.11:_ZN11POrdinalKeyC2Ei
libpt.so.2.10.11:_ZN11POrdinalKeyaSEi
libpt.so.2.10.11:_ZN11POrdinalKeymIEi
libpt.so.2.10.11:_ZN11POrdinalKeymmEi
libpt.so.2.10.11:_ZN11POrdinalKeymmEv
libpt.so.2.10.11:_ZN11POrdinalKeypLEi
libpt.so.2.10.11:_ZN11POrdinalKeyppEi
libpt.so.2.10.11:_ZN11POrdinalKeyppEv
libpt.so.2.10.11:_ZN11PPER_Stream10NullDecodeER9PASN_Null
libpt.so.2.10.11:_ZN11PPER_Stream10NullEncodeERK9PASN_Null
libpt.so.2.10.11:_ZN11PPER_Stream10RealDecodeER9PASN_Real
libpt.so.2.10.11:_ZN11PPER_Stream10RealEncodeERK9PASN_Real
libpt.so.2.10.11:_ZN11PPER_Stream11ArrayDecodeER10PASN_Array
libpt.so.2.10.11:_ZN11PPER_Stream11ArrayEncodeERK10PASN_Array
libpt.so.2.10.11:_ZN11PPER_Stream12ChoiceDecodeER11PASN_Choice
libpt.so.2.10.11:_ZN11PPER_Stream12ChoiceEncodeERK11PASN_Choice
libpt.so.2.10.11:_ZN11PPER_Stream12LengthDecodeEjjRj
libpt.so.2.10.11:_ZN11PPER_Stream12LengthEncodeEjjj
libpt.so.2.10.11:_ZN11PPER_Stream13AnyTypeEncodeEPK11PASN_Object
libpt.so.2.10.11:_ZN11PPER_Stream13BooleanDecodeER12PASN_Boolean
libpt.so.2.10.11:_ZN11PPER_Stream13BooleanEncodeERK12PASN_Boolean
libpt.so.2.10.11:_ZN11PPER_Stream13IntegerDecodeER12PASN_Integer
libpt.so.2.10.11:_ZN11PPER_Stream13IntegerEncodeERK12PASN_Integer
libpt.so.2.10.11:_ZN11PPER_Stream14MultiBitDecodeEjRj
libpt.so.2.10.11:_ZN11PPER_Stream14MultiBitEncodeEjj
libpt.so.2.10.11:_ZN11PPER_Stream14ObjectIdDecodeER13PASN_ObjectId
libpt.so.2.10.11:_ZN11PPER_Stream14ObjectIdEncodeERK13PASN_ObjectId
libpt.so.2.10.11:_ZN11PPER_Stream14UnsignedDecodeEjjRj
libpt.so.2.10.11:_ZN11PPER_Stream14UnsignedEncodeEijj
libpt.so.2.10.11:_ZN11PPER_Stream15BMPStringDecodeER14PASN_BMPString
libpt.so.2.10.11:_ZN11PPER_Stream15BMPStringEncodeERK14PASN_BMPString
libpt.so.2.10.11:_ZN11PPER_Stream15BitStringDecodeER14PASN_BitString
libpt.so.2.10.11:_ZN11PPER_Stream15BitStringEncodeERK14PASN_BitString
libpt.so.2.10.11:_ZN11PPER_Stream15SingleBitDecodeEv
libpt.so.2.10.11:_ZN11PPER_Stream15SingleBitEncodeEb
libpt.so.2.10.11:_ZN11PPER_Stream17EnumerationDecodeER16PASN_Enumeration
libpt.so.2.10.11:_ZN11PPER_Stream17EnumerationEncodeERK16PASN_Enumeration
libpt.so.2.10.11:_ZN11PPER_Stream17OctetStringDecodeER16PASN_OctetString
libpt.so.2.10.11:_ZN11PPER_Stream17OctetStringEncodeERK16PASN_OctetString
libpt.so.2.10.11:_ZN11PPER_Stream19SequenceKnownDecodeER13PASN_SequenceiR11PASN_Object
libpt.so.2.10.11:_ZN11PPER_Stream19SequenceKnownEncodeERK13PASN_SequenceiRK11PASN_Object
libpt.so.2.10.11:_ZN11PPER_Stream19SmallUnsignedDecodeERj
libpt.so.2.10.11:_ZN11PPER_Stream19SmallUnsignedEncodeEj
libpt.so.2.10.11:_ZN11PPER_Stream21SequenceUnknownDecodeER13PASN_Sequence
libpt.so.2.10.11:_ZN11PPER_Stream21SequenceUnknownEncodeERK13PASN_Sequence
libpt.so.2.10.11:_ZN11PPER_Stream22SequencePreambleDecodeER13PASN_Sequence
libpt.so.2.10.11:_ZN11PPER_Stream22SequencePreambleEncodeERK13PASN_Sequence
libpt.so.2.10.11:_ZN11PPER_Stream23ConstrainedStringDecodeER22PASN_ConstrainedString
libpt.so.2.10.11:_ZN11PPER_Stream23ConstrainedStringEncodeERK22PASN_ConstrainedString
libpt.so.2.10.11:_ZN11PPER_Stream4ReadER8PChannel
libpt.so.2.10.11:_ZN11PPER_Stream5WriteER8PChannel
libpt.so.2.10.11:_ZN11PPER_StreamC1EPKhib
libpt.so.2.10.11:_ZN11PPER_StreamC1ERK10PBYTEArrayb
libpt.so.2.10.11:_ZN11PPER_StreamC1Ei
libpt.so.2.10.11:_ZN11PPER_StreamC2EPKhib
libpt.so.2.10.11:_ZN11PPER_StreamC2ERK10PBYTEArrayb
libpt.so.2.10.11:_ZN11PPER_StreamC2Ei
libpt.so.2.10.11:_ZN11PPER_StreamaSERK10PBYTEArray
libpt.so.2.10.11:_ZN11PPOP3Client12BeginMessageEi
libpt.so.2.10.11:_ZN11PPOP3Client13DeleteMessageEi
libpt.so.2.10.11:_ZN11PPOP3Client15GetMessageCountEv
libpt.so.2.10.11:_ZN11PPOP3Client15GetMessageSizesEv
libpt.so.2.10.11:_ZN11PPOP3Client17GetMessageHeadersEv
libpt.so.2.10.11:_ZN11PPOP3Client5CloseEv
libpt.so.2.10.11:_ZN11PPOP3Client5LogInERK7PStringS2_i
libpt.so.2.10.11:_ZN11PPOP3Client6OnOpenEv
libpt.so.2.10.11:_ZN11PPOP3ClientC1Ev
libpt.so.2.10.11:_ZN11PPOP3ClientC2Ev
libpt.so.2.10.11:_ZN11PPOP3ClientD0Ev
libpt.so.2.10.11:_ZN11PPOP3ClientD1Ev
libpt.so.2.10.11:_ZN11PPOP3ClientD2Ev
libpt.so.2.10.11:_ZN11PPOP3Server14ProcessCommandEv
libpt.so.2.10.11:_ZN11PPOP3Server17HandleOpenMailboxERK7PStringS2_
libpt.so.2.10.11:_ZN11PPOP3Server17HandleSendMessageEiRK7PStringi
libpt.so.2.10.11:_ZN11PPOP3Server19HandleDeleteMessageEiRK7PString
libpt.so.2.10.11:_ZN11PPOP3Server5OnTOPEii
libpt.so.2.10.11:_ZN11PPOP3Server6OnDELEEi
libpt.so.2.10.11:_ZN11PPOP3Server6OnLISTEi
libpt.so.2.10.11:_ZN11PPOP3Server6OnNOOPEv
libpt.so.2.10.11:_ZN11PPOP3Server6OnOpenEv
libpt.so.2.10.11:_ZN11PPOP3Server6OnPASSERK7PString
libpt.so.2.10.11:_ZN11PPOP3Server6OnQUITEv
libpt.so.2.10.11:_ZN11PPOP3Server6OnRETREi
libpt.so.2.10.11:_ZN11PPOP3Server6OnRSETEv
libpt.so.2.10.11:_ZN11PPOP3Server6OnSTATEv
libpt.so.2.10.11:_ZN11PPOP3Server6OnUIDLEi
libpt.so.2.10.11:_ZN11PPOP3Server6OnUSERERK7PString
libpt.so.2.10.11:_ZN11PPOP3Server9OnUnknownERK15PCaselessString
libpt.so.2.10.11:_ZN11PPOP3ServerC1Ev
libpt.so.2.10.11:_ZN11PPOP3ServerC2Ev
libpt.so.2.10.11:_ZN11PSMTPClient10EndMessageEv
libpt.so.2.10.11:_ZN11PSMTPClient12BeginMessageERK7PStringRK11PStringListb
libpt.so.2.10.11:_ZN11PSMTPClient12BeginMessageERK7PStringS2_b
libpt.so.2.10.11:_ZN11PSMTPClient20InternalBeginMessageEv
libpt.so.2.10.11:_ZN11PSMTPClient5CloseEv
libpt.so.2.10.11:_ZN11PSMTPClient5LogInERK7PStringS2_
libpt.so.2.10.11:_ZN11PSMTPClient6OnOpenEv
libpt.so.2.10.11:_ZN11PSMTPClientC1Ev
libpt.so.2.10.11:_ZN11PSMTPClientC2Ev
libpt.so.2.10.11:_ZN11PSMTPClientD0Ev
libpt.so.2.10.11:_ZN11PSMTPClientD1Ev
libpt.so.2.10.11:_ZN11PSMTPClientD2Ev
libpt.so.2.10.11:_ZN11PSMTPServer10LookUpNameERK15PCaselessStringR7PString
libpt.so.2.10.11:_ZN11PSMTPServer10OnMIMEDataER10PCharArrayRb
libpt.so.2.10.11:_ZN11PSMTPServer10OnSendMailERK15PCaselessString
libpt.so.2.10.11:_ZN11PSMTPServer10OnTextDataER10PCharArrayRb
libpt.so.2.10.11:_ZN11PSMTPServer11ServerResetEv
libpt.so.2.10.11:_ZN11PSMTPServer13ForwardDomainER15PCaselessStringS1_
libpt.so.2.10.11:_ZN11PSMTPServer13HandleMessageER10PCharArraybb
libpt.so.2.10.11:_ZN11PSMTPServer14ProcessCommandEv
libpt.so.2.10.11:_ZN11PSMTPServer6OnDATAEv
libpt.so.2.10.11:_ZN11PSMTPServer6OnEHLOERK15PCaselessString
libpt.so.2.10.11:_ZN11PSMTPServer6OnEXPNERK15PCaselessString
libpt.so.2.10.11:_ZN11PSMTPServer6OnHELOERK15PCaselessString
libpt.so.2.10.11:_ZN11PSMTPServer6OnHELPEv
libpt.so.2.10.11:_ZN11PSMTPServer6OnMAILERK15PCaselessString
libpt.so.2.10.11:_ZN11PSMTPServer6OnNOOPEv
libpt.so.2.10.11:_ZN11PSMTPServer6OnOpenEv
libpt.so.2.10.11:_ZN11PSMTPServer6OnQUITEv
libpt.so.2.10.11:_ZN11PSMTPServer6OnRCPTERK15PCaselessString
libpt.so.2.10.11:_ZN11PSMTPServer6OnRSETEv
libpt.so.2.10.11:_ZN11PSMTPServer6OnSAMLERK15PCaselessString
libpt.so.2.10.11:_ZN11PSMTPServer6OnSENDERK15PCaselessString
libpt.so.2.10.11:_ZN11PSMTPServer6OnSOMLERK15PCaselessString
libpt.so.2.10.11:_ZN11PSMTPServer6OnTURNEv
libpt.so.2.10.11:_ZN11PSMTPServer6OnVRFYERK15PCaselessString
libpt.so.2.10.11:_ZN11PSMTPServer9OnUnknownERK15PCaselessString
libpt.so.2.10.11:_ZN11PSMTPServerC1Ev
libpt.so.2.10.11:_ZN11PSMTPServerC2Ev
libpt.so.2.10.11:_ZN11PSNMPClient10SetVersionEi
libpt.so.2.10.11:_ZN11PSNMPClient11ReadRequestER10PBYTEArray
libpt.so.2.10.11:_ZN11PSNMPClient12SetCommunityERK7PString
libpt.so.2.10.11:_ZN11PSNMPClient12SetRequestIDEi
libpt.so.2.10.11:_ZN11PSNMPClient12WriteRequestEiR19PSNMPVarBindingListS1_
libpt.so.2.10.11:_ZN11PSNMPClient15WriteGetRequestER19PSNMPVarBindingListS1_
libpt.so.2.10.11:_ZN11PSNMPClient15WriteSetRequestER19PSNMPVarBindingListS1_
libpt.so.2.10.11:_ZN11PSNMPClient19WriteGetNextRequestER19PSNMPVarBindingListS1_
libpt.so.2.10.11:_ZN11PSNMPClientC1ERK7PStringiiii
libpt.so.2.10.11:_ZN11PSNMPClientC1Eiiii
libpt.so.2.10.11:_ZN11PSNMPClientC2ERK7PStringiiii
libpt.so.2.10.11:_ZN11PSNMPClientC2Eiiii
libpt.so.2.10.11:_ZN11PSNMPServer10ProcessPDUERK10PBYTEArrayRS0_
libpt.so.2.10.11:_ZN11PSNMPServer10SetVersionEi
libpt.so.2.10.11:_ZN11PSNMPServer12OnGetRequestEiRNSt7__cxx114listISt4pairI7PString21PRFC1155_ObjectSyntaxESaIS5_EEERN5PSNMP9ErrorTypeE
libpt.so.2.10.11:_ZN11PSNMPServer12OnSetRequestEiRNSt7__cxx114listISt4pairI7PString21PRFC1155_ObjectSyntaxESaIS5_EEERN5PSNMP9ErrorTypeE
libpt.so.2.10.11:_ZN11PSNMPServer13HandleChannelEv
libpt.so.2.10.11:_ZN11PSNMPServer14ConfirmVersionE12PASN_Integer
libpt.so.2.10.11:_ZN11PSNMPServer14MIB_LocalMatchER9PSNMP_PDU
libpt.so.2.10.11:_ZN11PSNMPServer15SendGetResponseER19PSNMPVarBindingList
libpt.so.2.10.11:_ZN11PSNMPServer16ConfirmCommunityER16PASN_OctetString
libpt.so.2.10.11:_ZN11PSNMPServer16OnGetNextRequestEiRNSt7__cxx114listISt4pairI7PString21PRFC1155_ObjectSyntaxESaIS5_EEERN5PSNMP9ErrorTypeE
libpt.so.2.10.11:_ZN11PSNMPServer4MainEv
libpt.so.2.10.11:_ZN11PSNMPServer9AuthoriseERKN9PIPSocket7AddressE
libpt.so.2.10.11:_ZN11PSNMPServerC1EN9PIPSocket7AddressEtiii
libpt.so.2.10.11:_ZN11PSNMPServerC2EN9PIPSocket7AddressEtiii
libpt.so.2.10.11:_ZN11PSNMPServerD0Ev
libpt.so.2.10.11:_ZN11PSNMPServerD1Ev
libpt.so.2.10.11:_ZN11PSNMPServerD2Ev
libpt.so.2.10.11:_ZN11PSOAPClient11MakeRequestER12PSOAPMessageS1_
libpt.so.2.10.11:_ZN11PSOAPClient11MakeRequestERK7PStringS2_
libpt.so.2.10.11:_ZN11PSOAPClient11MakeRequestERK7PStringS2_R12PSOAPMessage
libpt.so.2.10.11:_ZN11PSOAPClient14PerformRequestER12PSOAPMessageS1_
libpt.so.2.10.11:_ZN11PSOAPClientC1ERK4PURL
libpt.so.2.10.11:_ZN11PSOAPClientC2ERK4PURL
libpt.so.2.10.11:_ZN11PSSLChannel10RawSSLReadEPvRi
libpt.so.2.10.11:_ZN11PSSLChannel13SetVerifyModeENS_10VerifyModeE
libpt.so.2.10.11:_ZN11PSSLChannel14ConvertOSErrorEiN8PChannel10ErrorGroupE
libpt.so.2.10.11:_ZN11PSSLChannel14UseCertificateERK15PSSLCertificate
libpt.so.2.10.11:_ZN11PSSLChannel4ReadEPvi
libpt.so.2.10.11:_ZN11PSSLChannel5CloseEv
libpt.so.2.10.11:_ZN11PSSLChannel5WriteEPKvi
libpt.so.2.10.11:_ZN11PSSLChannel6AcceptEP8PChannelb
libpt.so.2.10.11:_ZN11PSSLChannel6AcceptER8PChannel
libpt.so.2.10.11:_ZN11PSSLChannel6AcceptEv
libpt.so.2.10.11:_ZN11PSSLChannel6OnOpenEv
libpt.so.2.10.11:_ZN11PSSLChannel7ConnectEP8PChannelb
libpt.so.2.10.11:_ZN11PSSLChannel7ConnectER8PChannel
libpt.so.2.10.11:_ZN11PSSLChannel7ConnectEv
libpt.so.2.10.11:_ZN11PSSLChannelC1EP11PSSLContextb
libpt.so.2.10.11:_ZN11PSSLChannelC1ER11PSSLContext
libpt.so.2.10.11:_ZN11PSSLChannelC2EP11PSSLContextb
libpt.so.2.10.11:_ZN11PSSLChannelC2ER11PSSLContext
libpt.so.2.10.11:_ZN11PSSLChannelD0Ev
libpt.so.2.10.11:_ZN11PSSLChannelD1Ev
libpt.so.2.10.11:_ZN11PSSLChannelD2Ev
libpt.so.2.10.11:_ZN11PSSLContext13SetCipherListERK7PString
libpt.so.2.10.11:_ZN11PSSLContext13UsePrivateKeyERK14PSSLPrivateKey
libpt.so.2.10.11:_ZN11PSSLContext14UseCertificateERK15PSSLCertificate
libpt.so.2.10.11:_ZN11PSSLContext16UseDiffieHellmanERK17PSSLDiffieHellman
libpt.so.2.10.11:_ZN11PSSLContext9ConstructENS_6MethodEPKvi
libpt.so.2.10.11:_ZN11PSSLContext9SetCAFileERK9PFilePath
libpt.so.2.10.11:_ZN11PSSLContext9SetCAPathERK10PDirectory
libpt.so.2.10.11:_ZN11PSSLContextC1ENS_6MethodEPKvi
libpt.so.2.10.11:_ZN11PSSLContextC1EPKvi
libpt.so.2.10.11:_ZN11PSSLContextC2ENS_6MethodEPKvi
libpt.so.2.10.11:_ZN11PSSLContextC2EPKvi
libpt.so.2.10.11:_ZN11PSSLContextD1Ev
libpt.so.2.10.11:_ZN11PSSLContextD2Ev
libpt.so.2.10.11:_ZN11PSTUNClient10GetNatTypeEb
libpt.so.2.10.11:_ZN11PSTUNClient10InitialiseERK7PStringtttt
libpt.so.2.10.11:_ZN11PSTUNClient10OpenSocketER10PUDPSocketRN10PNatMethod8PortInfoERKN9PIPSocket7AddressE
libpt.so.2.10.11:_ZN11PSTUNClient11IsAvailableERKN9PIPSocket7AddressE
libpt.so.2.10.11:_ZN11PSTUNClient12CreateSocketERP10PUDPSocketRKN9PIPSocket7AddressEt
libpt.so.2.10.11:_ZN11PSTUNClient13GetRTPSupportEb
libpt.so.2.10.11:_ZN11PSTUNClient15InvalidateCacheEv
libpt.so.2.10.11:_ZN11PSTUNClient16CreateSocketPairERP10PUDPSocketS2_RKN9PIPSocket7AddressE
libpt.so.2.10.11:_ZN11PSTUNClient16GetNatTypeStringENS_8NatTypesE
libpt.so.2.10.11:_ZN11PSTUNClient18GetExternalAddressERN9PIPSocket7AddressERK13PTimeInterval
libpt.so.2.10.11:_ZN11PSTUNClient9SetServerERK7PString
libpt.so.2.10.11:_ZN11PSTUNClient9SetServerERKN9PIPSocket7AddressEt
libpt.so.2.10.11:_ZN11PSTUNClientC1ERK7PStringtttt
libpt.so.2.10.11:_ZN11PSTUNClientC1ERKN9PIPSocket7AddressEttttt
libpt.so.2.10.11:_ZN11PSTUNClientC1Ev
libpt.so.2.10.11:_ZN11PSTUNClientC2ERK7PStringtttt
libpt.so.2.10.11:_ZN11PSTUNClientC2ERKN9PIPSocket7AddressEttttt
libpt.so.2.10.11:_ZN11PSTUNClientC2Ev
libpt.so.2.10.11:_ZN11PSafeObject10SafeRemoveEv
libpt.so.2.10.11:_ZN11PSafeObject13LockReadWriteEv
libpt.so.2.10.11:_ZN11PSafeObject13SafeReferenceEv
libpt.so.2.10.11:_ZN11PSafeObject15SafeDereferenceEv
libpt.so.2.10.11:_ZN11PSafeObject15UnlockReadWriteEv
libpt.so.2.10.11:_ZN11PSafeObject17GarbageCollectionEv
libpt.so.2.10.11:_ZN11PSafeObjectC1EPS_
libpt.so.2.10.11:_ZN11PSafeObjectC2EPS_
libpt.so.2.10.11:_ZN11PStringList12AppendStringERK7PString
libpt.so.2.10.11:_ZN11PStringList12InsertStringERK7PStringS2_
libpt.so.2.10.11:_ZN11PStringList8ReadFromERSi
libpt.so.2.10.11:_ZN11PStringListC1ERK12PStringArray
libpt.so.2.10.11:_ZN11PStringListC1ERK17PSortedStringList
libpt.so.2.10.11:_ZN11PStringListC1ERK7PString
libpt.so.2.10.11:_ZN11PStringListC1EiPKPKcb
libpt.so.2.10.11:_ZN11PStringListC2ERK12PStringArray
libpt.so.2.10.11:_ZN11PStringListC2ERK17PSortedStringList
libpt.so.2.10.11:_ZN11PStringListC2ERK7PString
libpt.so.2.10.11:_ZN11PStringListC2EiPKPKcb
libpt.so.2.10.11:_ZN11PStringListpLERK7PString
libpt.so.2.10.11:_ZN11PStringListpLERKS_
libpt.so.2.10.11:_ZN11PStringListplERK7PString
libpt.so.2.10.11:_ZN11PStringListplERKS_
libpt.so.2.10.11:_ZN11PTimedMutex4WaitERK13PTimeInterval
libpt.so.2.10.11:_ZN11PTimedMutex4WaitEv
libpt.so.2.10.11:_ZN11PTimedMutex6SignalEv
libpt.so.2.10.11:_ZN11PTimedMutex9ConstructEv
libpt.so.2.10.11:_ZN11PTimedMutexC1ERKS_
libpt.so.2.10.11:_ZN11PTimedMutexC1Ev
libpt.so.2.10.11:_ZN11PTimedMutexC2ERKS_
libpt.so.2.10.11:_ZN11PTimedMutexC2Ev
libpt.so.2.10.11:_ZN11PTimedMutexD0Ev
libpt.so.2.10.11:_ZN11PTimedMutexD1Ev
libpt.so.2.10.11:_ZN11PTimedMutexD2Ev
libpt.so.2.10.11:_ZN11PXER_Stream10NullDecodeER9PASN_Null
libpt.so.2.10.11:_ZN11PXER_Stream10NullEncodeERK9PASN_Null
libpt.so.2.10.11:_ZN11PXER_Stream10RealDecodeER9PASN_Real
libpt.so.2.10.11:_ZN11PXER_Stream10RealEncodeERK9PASN_Real
libpt.so.2.10.11:_ZN11PXER_Stream11ArrayDecodeER10PASN_Array
libpt.so.2.10.11:_ZN11PXER_Stream11ArrayEncodeERK10PASN_Array
libpt.so.2.10.11:_ZN11PXER_Stream12ChoiceDecodeER11PASN_Choice
libpt.so.2.10.11:_ZN11PXER_Stream12ChoiceEncodeERK11PASN_Choice
libpt.so.2.10.11:_ZN11PXER_Stream13BooleanDecodeER12PASN_Boolean
libpt.so.2.10.11:_ZN11PXER_Stream13BooleanEncodeERK12PASN_Boolean
libpt.so.2.10.11:_ZN11PXER_Stream13IntegerDecodeER12PASN_Integer
libpt.so.2.10.11:_ZN11PXER_Stream13IntegerEncodeERK12PASN_Integer
libpt.so.2.10.11:_ZN11PXER_Stream14ObjectIdDecodeER13PASN_ObjectId
libpt.so.2.10.11:_ZN11PXER_Stream14ObjectIdEncodeERK13PASN_ObjectId
libpt.so.2.10.11:_ZN11PXER_Stream15BMPStringDecodeER14PASN_BMPString
libpt.so.2.10.11:_ZN11PXER_Stream15BMPStringEncodeERK14PASN_BMPString
libpt.so.2.10.11:_ZN11PXER_Stream15BitStringDecodeER14PASN_BitString
libpt.so.2.10.11:_ZN11PXER_Stream15BitStringEncodeERK14PASN_BitString
libpt.so.2.10.11:_ZN11PXER_Stream17EnumerationDecodeER16PASN_Enumeration
libpt.so.2.10.11:_ZN11PXER_Stream17EnumerationEncodeERK16PASN_Enumeration
libpt.so.2.10.11:_ZN11PXER_Stream17OctetStringDecodeER16PASN_OctetString
libpt.so.2.10.11:_ZN11PXER_Stream17OctetStringEncodeERK16PASN_OctetString
libpt.so.2.10.11:_ZN11PXER_Stream19SequenceKnownDecodeER13PASN_SequenceiR11PASN_Object
libpt.so.2.10.11:_ZN11PXER_Stream19SequenceKnownEncodeERK13PASN_SequenceiRK11PASN_Object
libpt.so.2.10.11:_ZN11PXER_Stream21SequenceUnknownDecodeER13PASN_Sequence
libpt.so.2.10.11:_ZN11PXER_Stream21SequenceUnknownEncodeERK13PASN_Sequence
libpt.so.2.10.11:_ZN11PXER_Stream22SequencePreambleDecodeER13PASN_Sequence
libpt.so.2.10.11:_ZN11PXER_Stream22SequencePreambleEncodeERK13PASN_Sequence
libpt.so.2.10.11:_ZN11PXER_Stream23ConstrainedStringDecodeER22PASN_ConstrainedString
libpt.so.2.10.11:_ZN11PXER_Stream23ConstrainedStringEncodeERK22PASN_ConstrainedString
libpt.so.2.10.11:_ZN11PXER_Stream4ReadER8PChannel
libpt.so.2.10.11:_ZN11PXER_Stream5WriteER8PChannel
libpt.so.2.10.11:_ZN11PXER_StreamC1EP11PXMLElement
libpt.so.2.10.11:_ZN11PXER_StreamC1EP11PXMLElementPKhi
libpt.so.2.10.11:_ZN11PXER_StreamC1EP11PXMLElementRK10PBYTEArray
libpt.so.2.10.11:_ZN11PXER_StreamC2EP11PXMLElement
libpt.so.2.10.11:_ZN11PXER_StreamC2EP11PXMLElementPKhi
libpt.so.2.10.11:_ZN11PXER_StreamC2EP11PXMLElementRK10PBYTEArray
libpt.so.2.10.11:_ZN11PXMLElement10AddElementEPKc
libpt.so.2.10.11:_ZN11PXMLElement10AddElementERK7PStringS2_
libpt.so.2.10.11:_ZN11PXMLElement10AddElementERK7PStringS2_S2_
libpt.so.2.10.11:_ZN11PXMLElement12AddNamespaceERK7PStringS2_
libpt.so.2.10.11:_ZN11PXMLElement12AddSubObjectEP10PXMLObjectb
libpt.so.2.10.11:_ZN11PXMLElement12SetAttributeERK15PCaselessStringRK7PStringb
libpt.so.2.10.11:_ZN11PXMLElement13RemoveElementEi
libpt.so.2.10.11:_ZN11PXMLElement15RemoveNamespaceERK7PString
libpt.so.2.10.11:_ZN11PXMLElement18GetURIForNamespaceERK15PCaselessStringRS0_
libpt.so.2.10.11:_ZN11PXMLElement7AddDataERK7PString
libpt.so.2.10.11:_ZN11PXMLElement7SetDataERK7PString
libpt.so.2.10.11:_ZN11PXMLElement8AddChildEP8PXMLDatab
libpt.so.2.10.11:_ZN11PXMLElement8AddChildEPS_b
libpt.so.2.10.11:_ZN11PXMLElementC1EPS_PKc
libpt.so.2.10.11:_ZN11PXMLElementC1EPS_RK7PStringS3_
libpt.so.2.10.11:_ZN11PXMLElementC2EPS_PKc
libpt.so.2.10.11:_ZN11PXMLElementC2EPS_RK7PStringS3_
libpt.so.2.10.11:_ZN11P_JPEG_Grey7ConvertEPKhPhPi
libpt.so.2.10.11:_ZN11P_JPEG_Grey7ConvertEPKhPhjPi
libpt.so.2.10.11:_ZN12PASNObjectID16GetEncodedLengthEv
libpt.so.2.10.11:_ZN12PASNObjectID6DecodeERK10PBYTEArrayRi
libpt.so.2.10.11:_ZN12PASNObjectID6EncodeER10PBYTEArray
libpt.so.2.10.11:_ZN12PASNObjectIDC1EPjh
libpt.so.2.10.11:_ZN12PASNObjectIDC1ERK10PBYTEArray
libpt.so.2.10.11:_ZN12PASNObjectIDC1ERK10PBYTEArrayRi
libpt.so.2.10.11:_ZN12PASNObjectIDC1ERK7PString
libpt.so.2.10.11:_ZN12PASNObjectIDC2EPjh
libpt.so.2.10.11:_ZN12PASNObjectIDC2ERK10PBYTEArray
libpt.so.2.10.11:_ZN12PASNObjectIDC2ERK10PBYTEArrayRi
libpt.so.2.10.11:_ZN12PASNObjectIDC2ERK7PString
libpt.so.2.10.11:_ZN12PASNSequence12AppendStringERK7PString
libpt.so.2.10.11:_ZN12PASNSequence13AppendIntegerEi
libpt.so.2.10.11:_ZN12PASNSequence14AppendObjectIDEPjh
libpt.so.2.10.11:_ZN12PASNSequence14AppendObjectIDERK7PString
libpt.so.2.10.11:_ZN12PASNSequence16GetEncodedLengthEv
libpt.so.2.10.11:_ZN12PASNSequence6AppendEP10PASNObject
libpt.so.2.10.11:_ZN12PASNSequence6DecodeERK10PBYTEArrayRi
libpt.so.2.10.11:_ZN12PASNSequence6EncodeER10PBYTEArray
libpt.so.2.10.11:_ZN12PASNSequence6EncodeER10PBYTEArrayi
libpt.so.2.10.11:_ZN12PASNSequenceC1ERK10PBYTEArray
libpt.so.2.10.11:_ZN12PASNSequenceC1ERK10PBYTEArrayRi
libpt.so.2.10.11:_ZN12PASNSequenceC1Eh
libpt.so.2.10.11:_ZN12PASNSequenceC1Ev
libpt.so.2.10.11:_ZN12PASNSequenceC2ERK10PBYTEArray
libpt.so.2.10.11:_ZN12PASNSequenceC2ERK10PBYTEArrayRi
libpt.so.2.10.11:_ZN12PASNSequenceC2Eh
libpt.so.2.10.11:_ZN12PASNSequenceC2Ev
libpt.so.2.10.11:_ZN12PASN_Boolean6DecodeER11PASN_Stream
libpt.so.2.10.11:_ZN12PASN_BooleanC1Eb
libpt.so.2.10.11:_ZN12PASN_BooleanC1EjN11PASN_Object8TagClassEb
libpt.so.2.10.11:_ZN12PASN_BooleanC2Eb
libpt.so.2.10.11:_ZN12PASN_BooleanC2EjN11PASN_Object8TagClassEb
libpt.so.2.10.11:_ZN12PASN_Integer19SetConstraintBoundsEN11PASN_Object14ConstraintTypeEij
libpt.so.2.10.11:_ZN12PASN_Integer6DecodeER11PASN_Stream
libpt.so.2.10.11:_ZN12PASN_Integer9DecodePERER11PPER_Stream
libpt.so.2.10.11:_ZN12PASN_IntegerC1Ej
libpt.so.2.10.11:_ZN12PASN_IntegerC1EjN11PASN_Object8TagClassEj
libpt.so.2.10.11:_ZN12PASN_IntegerC2Ej
libpt.so.2.10.11:_ZN12PASN_IntegerC2EjN11PASN_Object8TagClassEj
libpt.so.2.10.11:_ZN12PASN_IntegeraSEj
libpt.so.2.10.11:_ZN12PAbstractSet12CopyContentsERKS_
libpt.so.2.10.11:_ZN12PAbstractSet12IntersectionERKS_S1_PS_
libpt.so.2.10.11:_ZN12PAbstractSet13CloneContentsEPKS_
libpt.so.2.10.11:_ZN12PAbstractSet15DestroyContentsEv
libpt.so.2.10.11:_ZN12PAbstractSet5SetAtEiP7PObject
libpt.so.2.10.11:_ZN12PAbstractSet5UnionERKS_
libpt.so.2.10.11:_ZN12PAbstractSet6AppendEP7PObject
libpt.so.2.10.11:_ZN12PAbstractSet6InsertERK7PObjectPS0_
libpt.so.2.10.11:_ZN12PAbstractSet6RemoveEPK7PObject
libpt.so.2.10.11:_ZN12PAbstractSet8InsertAtEiP7PObject
libpt.so.2.10.11:_ZN12PAbstractSet8RemoveAtEi
libpt.so.2.10.11:_ZN12PAbstractSetC1Ev
libpt.so.2.10.11:_ZN12PAbstractSetC2Ev
libpt.so.2.10.11:_ZN12PCLIStandard15StartForegroundEv
libpt.so.2.10.11:_ZN12PCLIStandard5StartEb
libpt.so.2.10.11:_ZN12PCLIStandardC1EPKc
libpt.so.2.10.11:_ZN12PCLIStandardC2EPKc
libpt.so.2.10.11:_ZN12PDTMFDecoder6DecodeEPKsijj
libpt.so.2.10.11:_ZN12PDTMFDecoderC1Ev
libpt.so.2.10.11:_ZN12PDTMFDecoderC2Ev
libpt.so.2.10.11:_ZN12PDTMFEncoder7AddToneEPKcj
libpt.so.2.10.11:_ZN12PDTMFEncoder7AddToneEcj
libpt.so.2.10.11:_ZN12PDTMFEncoder7AddToneEddj
libpt.so.2.10.11:_ZN12PDTMFEncoder8DtmfCharEi
libpt.so.2.10.11:_ZN12PDTMFEncoderC1EPKcj
libpt.so.2.10.11:_ZN12PDTMFEncoderC1Ecj
libpt.so.2.10.11:_ZN12PDTMFEncoderC2EPKcj
libpt.so.2.10.11:_ZN12PDTMFEncoderC2Ecj
libpt.so.2.10.11:_ZN12PFactoryBase10FactoryMapD1Ev
libpt.so.2.10.11:_ZN12PFactoryBase10FactoryMapD2Ev
libpt.so.2.10.11:_ZN12PFactoryBase12GetFactoriesEv
libpt.so.2.10.11:_ZN12PFactoryBase17GetFactoriesMutexEv
libpt.so.2.10.11:_ZN12PHTTPRequestC1ERK4PURLRK9PMIMEInfoRK14PMultiPartListP13PHTTPResourceR11PHTTPServer
libpt.so.2.10.11:_ZN12PHTTPRequestC2ERK4PURLRK9PMIMEInfoRK14PMultiPartListP13PHTTPResourceR11PHTTPServer
libpt.so.2.10.11:_ZN12PHTTPSubFormC1ERK7PStringPKcS4_ii
libpt.so.2.10.11:_ZN12PHTTPSubFormC2ERK7PStringPKcS4_ii
libpt.so.2.10.11:_ZN12PIPCacheData8AddEntryEP8addrinfo
libpt.so.2.10.11:_ZN12PIPCacheDataC1EP7hostentPKc
libpt.so.2.10.11:_ZN12PIPCacheDataC1EP8addrinfoPKc
libpt.so.2.10.11:_ZN12PIPCacheDataC2EP7hostentPKc
libpt.so.2.10.11:_ZN12PIPCacheDataC2EP8addrinfoPKc
libpt.so.2.10.11:_ZN12PListElementC1EP7PObject
libpt.so.2.10.11:_ZN12PListElementC2EP7PObject
libpt.so.2.10.11:_ZN12PListElementdlEPv
libpt.so.2.10.11:_ZN12PListElementdlEPvPKci
libpt.so.2.10.11:_ZN12PListElementnwEm
libpt.so.2.10.11:_ZN12PListElementnwEmPKci
libpt.so.2.10.11:_ZN12PNatStrategy12RemoveMethodERK7PString
libpt.so.2.10.11:_ZN12PNatStrategy13LoadNatMethodERK7PString
libpt.so.2.10.11:_ZN12PNatStrategy13SetPortRangesEtttt
libpt.so.2.10.11:_ZN12PNatStrategy15GetMethodByNameERK7PString
libpt.so.2.10.11:_ZN12PNatStrategy17GetRegisteredListEv
libpt.so.2.10.11:_ZN12PNatStrategy9AddMethodEP10PNatMethod
libpt.so.2.10.11:_ZN12PNatStrategy9GetMethodERKN9PIPSocket7AddressE
libpt.so.2.10.11:_ZN12PNatStrategyC1Ev
libpt.so.2.10.11:_ZN12PNatStrategyC2Ev
libpt.so.2.10.11:_ZN12PNatStrategyD0Ev
libpt.so.2.10.11:_ZN12PNatStrategyD1Ev
libpt.so.2.10.11:_ZN12PNatStrategyD2Ev
libpt.so.2.10.11:_ZN12PPipeChannel12PlatformOpenERK7PStringRK12PStringArrayNS_8OpenModeEbbPK15PStringToString
libpt.so.2.10.11:_ZN12PPipeChannel15CanReadAndWriteEv
libpt.so.2.10.11:_ZN12PPipeChannel17ReadStandardErrorER7PStringb
libpt.so.2.10.11:_ZN12PPipeChannel18WaitForTerminationERK13PTimeInterval
libpt.so.2.10.11:_ZN12PPipeChannel18WaitForTerminationEv
libpt.so.2.10.11:_ZN12PPipeChannel4KillEi
libpt.so.2.10.11:_ZN12PPipeChannel4OpenERK7PStringNS_8OpenModeEbb
libpt.so.2.10.11:_ZN12PPipeChannel4OpenERK7PStringRK12PStringArrayNS_8OpenModeEbb
libpt.so.2.10.11:_ZN12PPipeChannel4OpenERK7PStringRK12PStringArrayRK15PStringToStringNS_8OpenModeEbb
libpt.so.2.10.11:_ZN12PPipeChannel4OpenERK7PStringRK15PStringToStringNS_8OpenModeEbb
libpt.so.2.10.11:_ZN12PPipeChannel4ReadEPvi
libpt.so.2.10.11:_ZN12PPipeChannel5CloseEv
libpt.so.2.10.11:_ZN12PPipeChannel5WriteEPKvi
libpt.so.2.10.11:_ZN12PPipeChannel7ExecuteEv
libpt.so.2.10.11:_ZN12PPipeChannelC1ERK7PStringNS_8OpenModeEbb
libpt.so.2.10.11:_ZN12PPipeChannelC1ERK7PStringRK12PStringArrayNS_8OpenModeEbb
libpt.so.2.10.11:_ZN12PPipeChannelC1ERK7PStringRK12PStringArrayRK15PStringToStringNS_8OpenModeEbb
libpt.so.2.10.11:_ZN12PPipeChannelC1ERK7PStringRK15PStringToStringNS_8OpenModeEbb
libpt.so.2.10.11:_ZN12PPipeChannelC1Ev
libpt.so.2.10.11:_ZN12PPipeChannelC2ERK7PStringNS_8OpenModeEbb
libpt.so.2.10.11:_ZN12PPipeChannelC2ERK7PStringRK12PStringArrayNS_8OpenModeEbb
libpt.so.2.10.11:_ZN12PPipeChannelC2ERK7PStringRK12PStringArrayRK15PStringToStringNS_8OpenModeEbb
libpt.so.2.10.11:_ZN12PPipeChannelC2ERK7PStringRK15PStringToStringNS_8OpenModeEbb
libpt.so.2.10.11:_ZN12PPipeChannelC2Ev
libpt.so.2.10.11:_ZN12PPipeChannelD0Ev
libpt.so.2.10.11:_ZN12PPipeChannelD1Ev
libpt.so.2.10.11:_ZN12PPipeChannelD2Ev
libpt.so.2.10.11:_ZN12PSOAPMessage12AddParameterE7PStringS0_S0_
libpt.so.2.10.11:_ZN12PSOAPMessage12AddParameterEP11PXMLElementb
libpt.so.2.10.11:_ZN12PSOAPMessage12GetParameterERK7PString
libpt.so.2.10.11:_ZN12PSOAPMessage12GetParameterERK7PStringRS0_
libpt.so.2.10.11:_ZN12PSOAPMessage12GetParameterERK7PStringRi
libpt.so.2.10.11:_ZN12PSOAPMessage4LoadERK7PString
libpt.so.2.10.11:_ZN12PSOAPMessage8SetFaultEiRK7PString
libpt.so.2.10.11:_ZN12PSOAPMessage9GetMethodER7PStringS1_
libpt.so.2.10.11:_ZN12PSOAPMessage9SetMethodERK7PStringS2_S2_
libpt.so.2.10.11:_ZN12PSOAPMessageC1ERK7PStringS2_
libpt.so.2.10.11:_ZN12PSOAPMessageC1Ei
libpt.so.2.10.11:_ZN12PSOAPMessageC2ERK7PStringS2_
libpt.so.2.10.11:_ZN12PSOAPMessageC2Ei
libpt.so.2.10.11:_ZN12PSafePtrBase12DeleteObjectEP11PSafeObject
libpt.so.2.10.11:_ZN12PSafePtrBase13SetSafetyModeE11PSafetyMode
libpt.so.2.10.11:_ZN12PSafePtrBase14ExitSafetyModeENS_20ExitSafetyModeOptionE
libpt.so.2.10.11:_ZN12PSafePtrBase15EnterSafetyModeENS_21EnterSafetyModeOptionE
libpt.so.2.10.11:_ZN12PSafePtrBase4NextEv
libpt.so.2.10.11:_ZN12PSafePtrBase6AssignEP11PSafeObject
libpt.so.2.10.11:_ZN12PSafePtrBase6AssignERK15PSafeCollection
libpt.so.2.10.11:_ZN12PSafePtrBase6AssignERKS_
libpt.so.2.10.11:_ZN12PSafePtrBase6AssignEi
libpt.so.2.10.11:_ZN12PSafePtrBase7SetNULLEv
libpt.so.2.10.11:_ZN12PSafePtrBase8PreviousEv
libpt.so.2.10.11:_ZN12PSafePtrBaseC1EP11PSafeObject11PSafetyMode
libpt.so.2.10.11:_ZN12PSafePtrBaseC1ERK15PSafeCollection11PSafetyModeP11PSafeObject
libpt.so.2.10.11:_ZN12PSafePtrBaseC1ERK15PSafeCollection11PSafetyModei
libpt.so.2.10.11:_ZN12PSafePtrBaseC1ERKS_
libpt.so.2.10.11:_ZN12PSafePtrBaseC2EP11PSafeObject11PSafetyMode
libpt.so.2.10.11:_ZN12PSafePtrBaseC2ERK15PSafeCollection11PSafetyModeP11PSafeObject
libpt.so.2.10.11:_ZN12PSafePtrBaseC2ERK15PSafeCollection11PSafetyModei
libpt.so.2.10.11:_ZN12PSafePtrBaseC2ERKS_
libpt.so.2.10.11:_ZN12PSafePtrBaseD0Ev
libpt.so.2.10.11:_ZN12PSafePtrBaseD1Ev
libpt.so.2.10.11:_ZN12PSafePtrBaseD2Ev
libpt.so.2.10.11:_ZN12PServiceHTML11SpliceMacroER7PStringRKS0_S3_
libpt.so.2.10.11:_ZN12PServiceHTML13ProcessMacrosER12PHTTPRequestR7PStringRKS2_j
libpt.so.2.10.11:_ZN12PServiceHTML14CheckSignatureERK7PString
libpt.so.2.10.11:_ZN12PServiceHTML14CheckSignatureEv
libpt.so.2.10.11:_ZN12PServiceHTML16ExtractSignatureER7PString
libpt.so.2.10.11:_ZN12PServiceHTML16ExtractSignatureERK7PStringRS0_PKc
libpt.so.2.10.11:_ZN12PServiceHTML18CalculateSignatureERK7PString
libpt.so.2.10.11:_ZN12PServiceHTML18CalculateSignatureERK7PStringRKN10PTEACypher3KeyE
libpt.so.2.10.11:_ZN12PServiceHTML18CalculateSignatureEv
libpt.so.2.10.11:_ZN12PServiceHTMLC1EPKcS1_S1_
libpt.so.2.10.11:_ZN12PServiceHTMLC2EPKcS1_S1_
libpt.so.2.10.11:_ZN12PSimpleTimer11SetIntervalExllli
libpt.so.2.10.11:_ZN12PSimpleTimer4StopEv
libpt.so.2.10.11:_ZN12PSimpleTimerC1ERK13PTimeInterval
libpt.so.2.10.11:_ZN12PSimpleTimerC1ERKS_
libpt.so.2.10.11:_ZN12PSimpleTimerC1Eliiii
libpt.so.2.10.11:_ZN12PSimpleTimerC2ERK13PTimeInterval
libpt.so.2.10.11:_ZN12PSimpleTimerC2ERKS_
libpt.so.2.10.11:_ZN12PSimpleTimerC2Eliiii
libpt.so.2.10.11:_ZN12PSimpleTimeraSERK13PTimeInterval
libpt.so.2.10.11:_ZN12PSimpleTimeraSERKS_
libpt.so.2.10.11:_ZN12PSimpleTimeraSEj
libpt.so.2.10.11:_ZN12PSocksSocket13SetErrorCodesEN8PChannel6ErrorsEi
libpt.so.2.10.11:_ZN12PSocksSocket14GetPeerAddressERN9PIPSocket7AddressE
libpt.so.2.10.11:_ZN12PSocksSocket14GetPeerAddressERN9PIPSocket7AddressERt
libpt.so.2.10.11:_ZN12PSocksSocket14TransferHandleERS_
libpt.so.2.10.11:_ZN12PSocksSocket15GetLocalAddressERN9PIPSocket7AddressE
libpt.so.2.10.11:_ZN12PSocksSocket15GetLocalAddressERN9PIPSocket7AddressERt
libpt.so.2.10.11:_ZN12PSocksSocket6AcceptER7PSocket
libpt.so.2.10.11:_ZN12PSocksSocket6AcceptEv
libpt.so.2.10.11:_ZN12PSocksSocket6ListenEjtN7PSocket11ReusabilityE
libpt.so.2.10.11:_ZN12PSocksSocket7ConnectERK7PString
libpt.so.2.10.11:_ZN12PSocksSocket7ConnectERKN9PIPSocket7AddressE
libpt.so.2.10.11:_ZN12PSocksSocket7ConnectEtRKN9PIPSocket7AddressE
libpt.so.2.10.11:_ZN12PSocksSocketC1Et
libpt.so.2.10.11:_ZN12PSocksSocketC2Et
libpt.so.2.10.11:_ZN12PStringArray12AppendStringERK7PString
libpt.so.2.10.11:_ZN12PStringArray8ReadFromERSi
libpt.so.2.10.11:_ZN12PStringArrayC1ERK11PStringList
libpt.so.2.10.11:_ZN12PStringArrayC1ERK17PSortedStringList
libpt.so.2.10.11:_ZN12PStringArrayC1ERK7PString
libpt.so.2.10.11:_ZN12PStringArrayC1EiPKPKcb
libpt.so.2.10.11:_ZN12PStringArrayC2ERK11PStringList
libpt.so.2.10.11:_ZN12PStringArrayC2ERK17PSortedStringList
libpt.so.2.10.11:_ZN12PStringArrayC2ERK7PString
libpt.so.2.10.11:_ZN12PStringArrayC2EiPKPKcb
libpt.so.2.10.11:_ZN12PStringArrayixEi
libpt.so.2.10.11:_ZN12PStringArraypLERK7PString
libpt.so.2.10.11:_ZN12PStringArraypLERKS_
libpt.so.2.10.11:_ZN12PStringArrayplERK7PString
libpt.so.2.10.11:_ZN12PStringArrayplERKS_
libpt.so.2.10.11:_ZN12PVXMLChannel10FlushQueueEv
libpt.so.2.10.11:_ZN12PVXMLChannel10SetSilenceEj
libpt.so.2.10.11:_ZN12PVXMLChannel12EndRecordingEv
libpt.so.2.10.11:_ZN12PVXMLChannel13CreateWAVFileERK9PFilePathb
libpt.so.2.10.11:_ZN12PVXMLChannel13QueuePlayableEP13PVXMLPlayable
libpt.so.2.10.11:_ZN12PVXMLChannel13QueuePlayableERK7PStringS2_iib
libpt.so.2.10.11:_ZN12PVXMLChannel13QueueResourceERK4PURLii
libpt.so.2.10.11:_ZN12PVXMLChannel14StartRecordingERK9PFilePathjj
libpt.so.2.10.11:_ZN12PVXMLChannel15QueueRecordableEP15PVXMLRecordable
libpt.so.2.10.11:_ZN12PVXMLChannel17AdjustWavFilenameERK7PString
libpt.so.2.10.11:_ZN12PVXMLChannel4OpenEP12PVXMLSession
libpt.so.2.10.11:_ZN12PVXMLChannel4ReadEPvi
libpt.so.2.10.11:_ZN12PVXMLChannel5CloseEv
libpt.so.2.10.11:_ZN12PVXMLChannel5WriteEPKvi
libpt.so.2.10.11:_ZN12PVXMLChannel9QueueDataERK10PBYTEArrayii
libpt.so.2.10.11:_ZN12PVXMLChannelC1Eji
libpt.so.2.10.11:_ZN12PVXMLChannelC2Eji
libpt.so.2.10.11:_ZN12PVXMLChannelD0Ev
libpt.so.2.10.11:_ZN12PVXMLChannelD1Ev
libpt.so.2.10.11:_ZN12PVXMLChannelD2Ev
libpt.so.2.10.11:_ZN12PVXMLGrammar10SetTimeoutERK13PTimeInterval
libpt.so.2.10.11:_ZN12PVXMLGrammar5StartEv
libpt.so.2.10.11:_ZN12PVXMLGrammar7ProcessEv
libpt.so.2.10.11:_ZN12PVXMLGrammar9OnTimeoutER6PTimerl
libpt.so.2.10.11:_ZN12PVXMLGrammarC1ER12PVXMLSessionR11PXMLElement
libpt.so.2.10.11:_ZN12PVXMLGrammarC2ER12PVXMLSessionR11PXMLElement
libpt.so.2.10.11:_ZN12PVXMLSession10TraverseIfER11PXMLElement
libpt.so.2.10.11:_ZN12PVXMLSession11GetBeepDataER10PBYTEArrayj
libpt.so.2.10.11:_ZN12PVXMLSession11LoadGrammarEP12PVXMLGrammar
libpt.so.2.10.11:_ZN12PVXMLSession11OnEndDialogEv
libpt.so.2.10.11:_ZN12PVXMLSession11OnUserInputERK7PString
libpt.so.2.10.11:_ZN12PVXMLSession11PlayCommandERK7PStringii
libpt.so.2.10.11:_ZN12PVXMLSession11PlayElementER11PXMLElement
libpt.so.2.10.11:_ZN12PVXMLSession11PlaySilenceERK13PTimeInterval
libpt.so.2.10.11:_ZN12PVXMLSession11PlaySilenceEi
libpt.so.2.10.11:_ZN12PVXMLSession11ProcessNodeEv
libpt.so.2.10.11:_ZN12PVXMLSession11TraverseVarER11PXMLElement
libpt.so.2.10.11:_ZN12PVXMLSession11VXMLExecuteER7PThreadl
libpt.so.2.10.11:_ZN12PVXMLSession12EndRecordingEv
libpt.so.2.10.11:_ZN12PVXMLSession12EvaluateExprERK7PString
libpt.so.2.10.11:_ZN12PVXMLSession12OnEndSessionEv
libpt.so.2.10.11:_ZN12PVXMLSession12PlayResourceERK4PURLii
libpt.so.2.10.11:_ZN12PVXMLSession12StringToTimeERK7PStringi
libpt.so.2.10.11:_ZN12PVXMLSession12TraverseExitER11PXMLElement
libpt.so.2.10.11:_ZN12PVXMLSession12TraverseFormER11PXMLElement
libpt.so.2.10.11:_ZN12PVXMLSession12TraverseGotoER11PXMLElement
libpt.so.2.10.11:_ZN12PVXMLSession12TraverseMenuER11PXMLElement
libpt.so.2.10.11:_ZN12PVXMLSession13ProcessEventsEv
libpt.so.2.10.11:_ZN12PVXMLSession13TraverseAudioER11PXMLElement
libpt.so.2.10.11:_ZN12PVXMLSession13TraverseBreakER11PXMLElement
libpt.so.2.10.11:_ZN12PVXMLSession13TraverseFieldER11PXMLElement
libpt.so.2.10.11:_ZN12PVXMLSession13TraverseSayAsER11PXMLElement
libpt.so.2.10.11:_ZN12PVXMLSession13TraverseValueER11PXMLElement
libpt.so.2.10.11:_ZN12PVXMLSession13TraversedFormER11PXMLElement
libpt.so.2.10.11:_ZN12PVXMLSession13TraversedMenuER11PXMLElement
libpt.so.2.10.11:_ZN12PVXMLSession14OnEndRecordingEv
libpt.so.2.10.11:_ZN12PVXMLSession14ProcessGrammarEv
libpt.so.2.10.11:_ZN12PVXMLSession14SetCurrentFormERK7PStringb
libpt.so.2.10.11:_ZN12PVXMLSession14StartRecordingERK9PFilePathbRK13PTimeIntervalS5_
libpt.so.2.10.11:_ZN12PVXMLSession14TraverseChoiceER11PXMLElement
libpt.so.2.10.11:_ZN12PVXMLSession14TraversePromptER11PXMLElement
libpt.so.2.10.11:_ZN12PVXMLSession14TraverseRecordER11PXMLElement
libpt.so.2.10.11:_ZN12PVXMLSession14TraverseSubmitER11PXMLElement
libpt.so.2.10.11:_ZN12PVXMLSession14TraversedFieldER11PXMLElement
libpt.so.2.10.11:_ZN12PVXMLSession15SetTextToSpeechEP13PTextToSpeechb
libpt.so.2.10.11:_ZN12PVXMLSession15SetTextToSpeechERK7PString
libpt.so.2.10.11:_ZN12PVXMLSession15TraverseGrammarER11PXMLElement
libpt.so.2.10.11:_ZN12PVXMLSession15TraversedPromptER11PXMLElement
libpt.so.2.10.11:_ZN12PVXMLSession15TraversedRecordER11PXMLElement
libpt.so.2.10.11:_ZN12PVXMLSession16GoToEventHandlerER11PXMLElementRK7PString
libpt.so.2.10.11:_ZN12PVXMLSession16InternalLoadVXMLERK7PStringS2_
libpt.so.2.10.11:_ZN12PVXMLSession16RetreiveResourceERK4PURLR7PStringR9PFilePathb
libpt.so.2.10.11:_ZN12PVXMLSession16TraversePropertyER11PXMLElement
libpt.so.2.10.11:_ZN12PVXMLSession16TraverseTransferER11PXMLElement
libpt.so.2.10.11:_ZN12PVXMLSession17TraversedTransferER11PXMLElement
libpt.so.2.10.11:_ZN12PVXMLSession18TraverseDisconnectER11PXMLElement
libpt.so.2.10.11:_ZN12PVXMLSession19SetTransferCompleteEb
libpt.so.2.10.11:_ZN12PVXMLSession21GetAndLockVXMLChannelEv
libpt.so.2.10.11:_ZN12PVXMLSession21NormaliseResourceNameERK7PString
libpt.so.2.10.11:_ZN12PVXMLSession25ConvertTextToFilenameListERK7PStringN13PTextToSpeech8TextTypeER12PStringArrayb
libpt.so.2.10.11:_ZN12PVXMLSession4LoadERK7PString
libpt.so.2.10.11:_ZN12PVXMLSession4OpenERK7PString
libpt.so.2.10.11:_ZN12PVXMLSession5CloseEv
libpt.so.2.10.11:_ZN12PVXMLSession5SayAsERK7PStringS2_
libpt.so.2.10.11:_ZN12PVXMLSession5SayAsERK7PStringS2_S2_
libpt.so.2.10.11:_ZN12PVXMLSession6SetVarERK7PStringS2_
libpt.so.2.10.11:_ZN12PVXMLSession7ExecuteEv
libpt.so.2.10.11:_ZN12PVXMLSession7LoadURLERK4PURL
libpt.so.2.10.11:_ZN12PVXMLSession7TriggerEv
libpt.so.2.10.11:_ZN12PVXMLSession8LoadFileERK9PFilePathRK7PString
libpt.so.2.10.11:_ZN12PVXMLSession8LoadVXMLERK7PStringS2_
libpt.so.2.10.11:_ZN12PVXMLSession8NextNodeEb
libpt.so.2.10.11:_ZN12PVXMLSession8PlayDataERK10PBYTEArrayii
libpt.so.2.10.11:_ZN12PVXMLSession8PlayFileERK7PStringiib
libpt.so.2.10.11:_ZN12PVXMLSession8PlayStopEv
libpt.so.2.10.11:_ZN12PVXMLSession8PlayTextERK7PStringN13PTextToSpeech8TextTypeEii
libpt.so.2.10.11:_ZN12PVXMLSession8PlayToneERK7PStringii
libpt.so.2.10.11:_ZN12PVXMLSession8SetPauseEb
libpt.so.2.10.11:_ZN12PVXMLSessionC1EP13PTextToSpeechb
libpt.so.2.10.11:_ZN12PVXMLSessionC2EP13PTextToSpeechb
libpt.so.2.10.11:_ZN12PVXMLSessionD0Ev
libpt.so.2.10.11:_ZN12PVXMLSessionD1Ev
libpt.so.2.10.11:_ZN12PVXMLSessionD2Ev
libpt.so.2.10.11:_ZN12PVideoDevice10SetChannelEi
libpt.so.2.10.11:_ZN12PVideoDevice11GetContrastEv
libpt.so.2.10.11:_ZN12PVideoDevice11SetContrastEj
libpt.so.2.10.11:_ZN12PVideoDevice12GetWhitenessEv
libpt.so.2.10.11:_ZN12PVideoDevice12SetFrameSizeEjj
libpt.so.2.10.11:_ZN12PVideoDevice12SetWhitenessEj
libpt.so.2.10.11:_ZN12PVideoDevice13GetBrightnessEv
libpt.so.2.10.11:_ZN12PVideoDevice13GetParametersEPiS0_S0_S0_S0_
libpt.so.2.10.11:_ZN12PVideoDevice13GetVFlipStateEv
libpt.so.2.10.11:_ZN12PVideoDevice13SetBrightnessEj
libpt.so.2.10.11:_ZN12PVideoDevice13SetVFlipStateEb
libpt.so.2.10.11:_ZN12PVideoDevice14GetNumChannelsEv
libpt.so.2.10.11:_ZN12PVideoDevice14SetVideoFormatENS_11VideoFormatE
libpt.so.2.10.11:_ZN12PVideoDevice18GetFrameSizeLimitsERjS0_S0_S0_
libpt.so.2.10.11:_ZN12PVideoDevice19SetNearestFrameSizeEjj
libpt.so.2.10.11:_ZN12PVideoDevice21SetFrameSizeConverterEjjN15PVideoFrameInfo10ResizeModeE
libpt.so.2.10.11:_ZN12PVideoDevice21SetVideoChannelFormatEiNS_11VideoFormatE
libpt.so.2.10.11:_ZN12PVideoDevice24SetColourFormatConverterERK7PString
libpt.so.2.10.11:_ZN12PVideoDevice4StopEv
libpt.so.2.10.11:_ZN12PVideoDevice5CloseEv
libpt.so.2.10.11:_ZN12PVideoDevice5StartEv
libpt.so.2.10.11:_ZN12PVideoDevice6GetHueEv
libpt.so.2.10.11:_ZN12PVideoDevice6SetHueEj
libpt.so.2.10.11:_ZN12PVideoDevice8OpenArgsC1Ev
libpt.so.2.10.11:_ZN12PVideoDevice8OpenArgsC2Ev
libpt.so.2.10.11:_ZN12PVideoDevice8OpenFullERKNS_8OpenArgsEb
libpt.so.2.10.11:_ZN12PVideoDevice9GetColourEv
libpt.so.2.10.11:_ZN12PVideoDevice9SetColourEj
libpt.so.2.10.11:_ZN12PVideoDeviceC1Ev
libpt.so.2.10.11:_ZN12PVideoDeviceC2Ev
libpt.so.2.10.11:_ZN12PVideoDeviceD0Ev
libpt.so.2.10.11:_ZN12PVideoDeviceD1Ev
libpt.so.2.10.11:_ZN12PVideoDeviceD2Ev
libpt.so.2.10.11:_ZN12PXMLRPCBlock10ParseArrayEP11PXMLElementR12PStringArray
libpt.so.2.10.11:_ZN12PXMLRPCBlock10ParseArrayEP11PXMLElementR19PXMLRPCVariableBase
libpt.so.2.10.11:_ZN12PXMLRPCBlock10ParseArrayEP11PXMLElementR6PArrayI15PStringToStringE
libpt.so.2.10.11:_ZN12PXMLRPCBlock11CreateArrayERK12PStringArray
libpt.so.2.10.11:_ZN12PXMLRPCBlock11CreateArrayERK12PStringArrayRK7PString
libpt.so.2.10.11:_ZN12PXMLRPCBlock11CreateArrayERK12PStringArrayS2_
libpt.so.2.10.11:_ZN12PXMLRPCBlock11CreateArrayERK19PXMLRPCVariableBase
libpt.so.2.10.11:_ZN12PXMLRPCBlock11CreateArrayERK6PArrayI15PStringToStringE
libpt.so.2.10.11:_ZN12PXMLRPCBlock11ParseScalarEP11PXMLElementR7PStringS3_
libpt.so.2.10.11:_ZN12PXMLRPCBlock11ParseStructEP11PXMLElementR15PStringToString
libpt.so.2.10.11:_ZN12PXMLRPCBlock11ParseStructEP11PXMLElementR17PXMLRPCStructBase
libpt.so.2.10.11:_ZN12PXMLRPCBlock12CreateBinaryERK10PBYTEArray
libpt.so.2.10.11:_ZN12PXMLRPCBlock12CreateMemberERK7PStringP11PXMLElement
libpt.so.2.10.11:_ZN12PXMLRPCBlock12CreateScalarERK7PString
libpt.so.2.10.11:_ZN12PXMLRPCBlock12CreateScalarERK7PStringS2_
libpt.so.2.10.11:_ZN12PXMLRPCBlock12CreateScalarEd
libpt.so.2.10.11:_ZN12PXMLRPCBlock12CreateScalarEi
libpt.so.2.10.11:_ZN12PXMLRPCBlock12CreateStructERK15PStringToString
libpt.so.2.10.11:_ZN12PXMLRPCBlock12CreateStructERK15PStringToStringRK7PString
libpt.so.2.10.11:_ZN12PXMLRPCBlock12CreateStructERK17PXMLRPCStructBase
libpt.so.2.10.11:_ZN12PXMLRPCBlock12CreateStructEv
libpt.so.2.10.11:_ZN12PXMLRPCBlock16GetExpectedParamEiRK7PStringRS0_
libpt.so.2.10.11:_ZN12PXMLRPCBlock16ValidateResponseEv
libpt.so.2.10.11:_ZN12PXMLRPCBlock17CreateDateAndTimeERK5PTime
libpt.so.2.10.11:_ZN12PXMLRPCBlock18CreateValueElementEP11PXMLElement
libpt.so.2.10.11:_ZN12PXMLRPCBlock4LoadERK7PString
libpt.so.2.10.11:_ZN12PXMLRPCBlock8AddArrayERK12PStringArray
libpt.so.2.10.11:_ZN12PXMLRPCBlock8AddArrayERK12PStringArrayRK7PString
libpt.so.2.10.11:_ZN12PXMLRPCBlock8AddArrayERK12PStringArrayS2_
libpt.so.2.10.11:_ZN12PXMLRPCBlock8AddArrayERK6PArrayI15PStringToStringE
libpt.so.2.10.11:_ZN12PXMLRPCBlock8AddParamEP11PXMLElement
libpt.so.2.10.11:_ZN12PXMLRPCBlock8AddParamERK17PXMLRPCStructBase
libpt.so.2.10.11:_ZN12PXMLRPCBlock8AddParamERK5PTime
libpt.so.2.10.11:_ZN12PXMLRPCBlock8AddParamERK7PString
libpt.so.2.10.11:_ZN12PXMLRPCBlock8AddParamEd
libpt.so.2.10.11:_ZN12PXMLRPCBlock8AddParamEi
libpt.so.2.10.11:_ZN12PXMLRPCBlock8GetParamEiR12PStringArray
libpt.so.2.10.11:_ZN12PXMLRPCBlock8GetParamEiR15PStringToString
libpt.so.2.10.11:_ZN12PXMLRPCBlock8GetParamEiR17PXMLRPCStructBase
libpt.so.2.10.11:_ZN12PXMLRPCBlock8GetParamEiR5PTimei
libpt.so.2.10.11:_ZN12PXMLRPCBlock8GetParamEiR6PArrayI15PStringToStringE
libpt.so.2.10.11:_ZN12PXMLRPCBlock8GetParamEiR7PString
libpt.so.2.10.11:_ZN12PXMLRPCBlock8GetParamEiR7PStringS1_
libpt.so.2.10.11:_ZN12PXMLRPCBlock8GetParamEiRd
libpt.so.2.10.11:_ZN12PXMLRPCBlock8GetParamEiRi
libpt.so.2.10.11:_ZN12PXMLRPCBlock9AddBinaryERK10PBYTEArray
libpt.so.2.10.11:_ZN12PXMLRPCBlock9AddStructERK15PStringToString
libpt.so.2.10.11:_ZN12PXMLRPCBlock9AddStructERK15PStringToStringRK7PString
libpt.so.2.10.11:_ZN12PXMLRPCBlock9GetParamsER17PXMLRPCStructBase
libpt.so.2.10.11:_ZN12PXMLRPCBlock9GetParamsEv
libpt.so.2.10.11:_ZN12PXMLRPCBlockC1ERK7PString
libpt.so.2.10.11:_ZN12PXMLRPCBlockC1ERK7PStringRK17PXMLRPCStructBase
libpt.so.2.10.11:_ZN12PXMLRPCBlockC1Ev
libpt.so.2.10.11:_ZN12PXMLRPCBlockC2ERK7PString
libpt.so.2.10.11:_ZN12PXMLRPCBlockC2ERK7PStringRK17PXMLRPCStructBase
libpt.so.2.10.11:_ZN12PXMLRPCBlockC2Ev
libpt.so.2.10.11:_ZN12PXMLSettings12SetAttributeERK15PCaselessStringRK7PStringS5_
libpt.so.2.10.11:_ZN12PXMLSettings4LoadERK7PString
libpt.so.2.10.11:_ZN12PXMLSettings4SaveER7PString
libpt.so.2.10.11:_ZN12PXMLSettings4SaveEv
libpt.so.2.10.11:_ZN12PXMLSettings8LoadFileERK9PFilePath
libpt.so.2.10.11:_ZN12PXMLSettings8SaveFileERK9PFilePath
libpt.so.2.10.11:_ZN12PXMLSettingsC1EN8PXMLBase7OptionsE
libpt.so.2.10.11:_ZN12PXMLSettingsC1ERK7PConfigN8PXMLBase7OptionsE
libpt.so.2.10.11:_ZN12PXMLSettingsC1ERK7PStringN8PXMLBase7OptionsE
libpt.so.2.10.11:_ZN12PXMLSettingsC2EN8PXMLBase7OptionsE
libpt.so.2.10.11:_ZN12PXMLSettingsC2ERK7PConfigN8PXMLBase7OptionsE
libpt.so.2.10.11:_ZN12PXMLSettingsC2ERK7PStringN8PXMLBase7OptionsE
libpt.so.2.10.11:_ZN12P_JPEG_BGR247ConvertEPKhPhPi
libpt.so.2.10.11:_ZN12P_JPEG_BGR247ConvertEPKhPhjPi
libpt.so.2.10.11:_ZN12P_JPEG_RGB247ConvertEPKhPhPi
libpt.so.2.10.11:_ZN12P_JPEG_RGB247ConvertEPKhPhjPi
libpt.so.2.10.11:_ZN12P_MJPEG_Grey7ConvertEPKhPhPi
libpt.so.2.10.11:_ZN12P_MJPEG_Grey7ConvertEPKhPhjPi
libpt.so.2.10.11:_ZN13PASNIPAddressC1ERK7PString
libpt.so.2.10.11:_ZN13PASNIPAddressC2ERK7PString
libpt.so.2.10.11:_ZN13PASN_ObjectId12CommonDecodeER11PASN_Streamj
libpt.so.2.10.11:_ZN13PASN_ObjectId6DecodeER11PASN_Stream
libpt.so.2.10.11:_ZN13PASN_ObjectId8SetValueEPKji
libpt.so.2.10.11:_ZN13PASN_ObjectId8SetValueERK7PString
libpt.so.2.10.11:_ZN13PASN_ObjectIdC1EPKc
libpt.so.2.10.11:_ZN13PASN_ObjectIdC1ERKS_
libpt.so.2.10.11:_ZN13PASN_ObjectIdC1EjN11PASN_Object8TagClassE
libpt.so.2.10.11:_ZN13PASN_ObjectIdC2EPKc
libpt.so.2.10.11:_ZN13PASN_ObjectIdC2ERKS_
libpt.so.2.10.11:_ZN13PASN_ObjectIdC2EjN11PASN_Object8TagClassE
libpt.so.2.10.11:_ZN13PASN_ObjectIdaSEPKc
libpt.so.2.10.11:_ZN13PASN_ObjectIdaSERK12PScalarArrayIjE
libpt.so.2.10.11:_ZN13PASN_ObjectIdaSERK7PString
libpt.so.2.10.11:_ZN13PASN_ObjectIdaSERKS_
libpt.so.2.10.11:_ZN13PASN_Sequence14PreambleDecodeER11PASN_Stream
libpt.so.2.10.11:_ZN13PASN_Sequence17PreambleDecodeBERER11PBER_Stream
libpt.so.2.10.11:_ZN13PASN_Sequence17PreambleDecodePERER11PPER_Stream
libpt.so.2.10.11:_ZN13PASN_Sequence17PreambleDecodeXERER11PXER_Stream
libpt.so.2.10.11:_ZN13PASN_Sequence19RemoveOptionalFieldEi
libpt.so.2.10.11:_ZN13PASN_Sequence20IncludeOptionalFieldEi
libpt.so.2.10.11:_ZN13PASN_Sequence20KnownExtensionDecodeER11PASN_StreamiR11PASN_Object
libpt.so.2.10.11:_ZN13PASN_Sequence20NoExtensionsToDecodeER11PPER_Stream
libpt.so.2.10.11:_ZN13PASN_Sequence20NoExtensionsToEncodeER11PPER_Stream
libpt.so.2.10.11:_ZN13PASN_Sequence23KnownExtensionDecodeBERER11PBER_StreamiR11PASN_Object
libpt.so.2.10.11:_ZN13PASN_Sequence23KnownExtensionDecodePERER11PPER_StreamiR11PASN_Object
libpt.so.2.10.11:_ZN13PASN_Sequence23KnownExtensionDecodeXERER11PXER_StreamiR11PASN_Object
libpt.so.2.10.11:_ZN13PASN_Sequence23UnknownExtensionsDecodeER11PASN_Stream
libpt.so.2.10.11:_ZN13PASN_Sequence26UnknownExtensionsDecodeBERER11PBER_Stream
libpt.so.2.10.11:_ZN13PASN_Sequence26UnknownExtensionsDecodePERER11PPER_Stream
libpt.so.2.10.11:_ZN13PASN_Sequence26UnknownExtensionsDecodeXERER11PXER_Stream
libpt.so.2.10.11:_ZN13PASN_Sequence6DecodeER11PASN_Stream
libpt.so.2.10.11:_ZN13PASN_SequenceC1ERKS_
libpt.so.2.10.11:_ZN13PASN_SequenceC1EjN11PASN_Object8TagClassEjbj
libpt.so.2.10.11:_ZN13PASN_SequenceC2ERKS_
libpt.so.2.10.11:_ZN13PASN_SequenceC2EjN11PASN_Object8TagClassEjbj
libpt.so.2.10.11:_ZN13PASN_SequenceaSERKS_
libpt.so.2.10.11:_ZN13PAbstractList12CopyContentsERKS_
libpt.so.2.10.11:_ZN13PAbstractList13CloneContentsEPKS_
libpt.so.2.10.11:_ZN13PAbstractList13RemoveElementEP12PListElement
libpt.so.2.10.11:_ZN13PAbstractList15DestroyContentsEv
libpt.so.2.10.11:_ZN13PAbstractList5SetAtEiP7PObject
libpt.so.2.10.11:_ZN13PAbstractList6AppendEP7PObject
libpt.so.2.10.11:_ZN13PAbstractList6InsertERK7PObjectPS0_
libpt.so.2.10.11:_ZN13PAbstractList6RemoveEPK7PObject
libpt.so.2.10.11:_ZN13PAbstractList7SetSizeEi
libpt.so.2.10.11:_ZN13PAbstractList8InsertAtEiP7PObject
libpt.so.2.10.11:_ZN13PAbstractList8RemoveAtEi
libpt.so.2.10.11:_ZN13PAbstractList9ReplaceAtEiP7PObject
libpt.so.2.10.11:_ZN13PAbstractListC1Ev
libpt.so.2.10.11:_ZN13PAbstractListC2Ev
libpt.so.2.10.11:_ZN13PArrayObjects12CopyContentsERKS_
libpt.so.2.10.11:_ZN13PArrayObjects13CloneContentsEPKS_
libpt.so.2.10.11:_ZN13PArrayObjects15DestroyContentsEv
libpt.so.2.10.11:_ZN13PArrayObjects5SetAtEiP7PObject
libpt.so.2.10.11:_ZN13PArrayObjects6AppendEP7PObject
libpt.so.2.10.11:_ZN13PArrayObjects6InsertERK7PObjectPS0_
libpt.so.2.10.11:_ZN13PArrayObjects6RemoveEPK7PObject
libpt.so.2.10.11:_ZN13PArrayObjects7SetSizeEi
libpt.so.2.10.11:_ZN13PArrayObjects8InsertAtEiP7PObject
libpt.so.2.10.11:_ZN13PArrayObjects8RemoveAtEi
libpt.so.2.10.11:_ZN13PArrayObjects9RemoveAllEv
libpt.so.2.10.11:_ZN13PArrayObjectsC1Ei
libpt.so.2.10.11:_ZN13PArrayObjectsC2Ei
libpt.so.2.10.11:_ZN13PDelayChannel4ReadEPvi
libpt.so.2.10.11:_ZN13PDelayChannel4WaitEiR13PTimeInterval
libpt.so.2.10.11:_ZN13PDelayChannel5WriteEPKvi
libpt.so.2.10.11:_ZN13PDelayChannelC1ENS_4ModeEjijj
libpt.so.2.10.11:_ZN13PDelayChannelC1ER8PChannelNS_4ModeEjijj
libpt.so.2.10.11:_ZN13PDelayChannelC2ENS_4ModeEjijj
libpt.so.2.10.11:_ZN13PDelayChannelC2ER8PChannelNS_4ModeEjijj
libpt.so.2.10.11:_ZN13PHTTPResource10OnPOSTDataER12PHTTPRequestRK15PStringToString
libpt.so.2.10.11:_ZN13PHTTPResource11OnGETOrHEADER11PHTTPServerRK4PURLRK9PMIMEInfoRK19PHTTPConnectionInfob
libpt.so.2.10.11:_ZN13PHTTPResource12OnLoadedTextER12PHTTPRequestR7PString
libpt.so.2.10.11:_ZN13PHTTPResource12SetAuthorityERK14PHTTPAuthority
libpt.so.2.10.11:_ZN13PHTTPResource13CreateRequestERK4PURLRK9PMIMEInfoRK14PMultiPartListR11PHTTPServer
libpt.so.2.10.11:_ZN13PHTTPResource14CheckAuthorityER11PHTTPServerRK12PHTTPRequestRK19PHTTPConnectionInfo
libpt.so.2.10.11:_ZN13PHTTPResource14CheckAuthorityER14PHTTPAuthorityR11PHTTPServerRK12PHTTPRequestRK19PHTTPConnectionInfo
libpt.so.2.10.11:_ZN13PHTTPResource14ClearAuthorityEv
libpt.so.2.10.11:_ZN13PHTTPResource15IsModifiedSinceERK5PTime
libpt.so.2.10.11:_ZN13PHTTPResource17GetExpirationDateER5PTime
libpt.so.2.10.11:_ZN13PHTTPResource4PostER12PHTTPRequestRK15PStringToStringR5PHTML
libpt.so.2.10.11:_ZN13PHTTPResource5OnGETER11PHTTPServerRK4PURLRK9PMIMEInfoRK19PHTTPConnectionInfo
libpt.so.2.10.11:_ZN13PHTTPResource6OnHEADER11PHTTPServerRK4PURLRK9PMIMEInfoRK19PHTTPConnectionInfo
libpt.so.2.10.11:_ZN13PHTTPResource6OnPOSTER11PHTTPServerRK4PURLRK9PMIMEInfoRK15PStringToStringRK19PHTTPConnectionInfo
libpt.so.2.10.11:_ZN13PHTTPResource8LoadDataER12PHTTPRequestR10PCharArray
libpt.so.2.10.11:_ZN13PHTTPResource8LoadTextER12PHTTPRequest
libpt.so.2.10.11:_ZN13PHTTPResource8SendDataER12PHTTPRequest
libpt.so.2.10.11:_ZN13PHTTPResource9OnGETDataER11PHTTPServerRK4PURLRK19PHTTPConnectionInfoR12PHTTPRequest
libpt.so.2.10.11:_ZN13PHTTPResourceC1ERK4PURL
libpt.so.2.10.11:_ZN13PHTTPResourceC1ERK4PURLRK14PHTTPAuthority
libpt.so.2.10.11:_ZN13PHTTPResourceC1ERK4PURLRK7PString
libpt.so.2.10.11:_ZN13PHTTPResourceC1ERK4PURLRK7PStringRK14PHTTPAuthority
libpt.so.2.10.11:_ZN13PHTTPResourceC2ERK4PURL
libpt.so.2.10.11:_ZN13PHTTPResourceC2ERK4PURLRK14PHTTPAuthority
libpt.so.2.10.11:_ZN13PHTTPResourceC2ERK4PURLRK7PString
libpt.so.2.10.11:_ZN13PHTTPResourceC2ERK4PURLRK7PStringRK14PHTTPAuthority
libpt.so.2.10.11:_ZN13PHTTPResourceD0Ev
libpt.so.2.10.11:_ZN13PHTTPResourceD1Ev
libpt.so.2.10.11:_ZN13PHTTPResourceD2Ev
libpt.so.2.10.11:_ZN13PHTTPTailFile11LoadHeadersER12PHTTPRequest
libpt.so.2.10.11:_ZN13PHTTPTailFile8LoadDataER12PHTTPRequestR10PCharArray
libpt.so.2.10.11:_ZN13PHTTPTailFileC1ERK4PURLRK9PFilePath
libpt.so.2.10.11:_ZN13PHTTPTailFileC1ERK4PURLRK9PFilePathRK14PHTTPAuthority
libpt.so.2.10.11:_ZN13PHTTPTailFileC1ERK4PURLRK9PFilePathRK7PString
libpt.so.2.10.11:_ZN13PHTTPTailFileC1ERK4PURLRK9PFilePathRK7PStringRK14PHTTPAuthority
libpt.so.2.10.11:_ZN13PHTTPTailFileC1ERK7PString
libpt.so.2.10.11:_ZN13PHTTPTailFileC1ERK7PStringRK14PHTTPAuthority
libpt.so.2.10.11:_ZN13PHTTPTailFileC2ERK4PURLRK9PFilePath
libpt.so.2.10.11:_ZN13PHTTPTailFileC2ERK4PURLRK9PFilePathRK14PHTTPAuthority
libpt.so.2.10.11:_ZN13PHTTPTailFileC2ERK4PURLRK9PFilePathRK7PString
libpt.so.2.10.11:_ZN13PHTTPTailFileC2ERK4PURLRK9PFilePathRK7PStringRK14PHTTPAuthority
libpt.so.2.10.11:_ZN13PHTTPTailFileC2ERK7PString
libpt.so.2.10.11:_ZN13PHTTPTailFileC2ERK7PStringRK14PHTTPAuthority
libpt.so.2.10.11:_ZN13PIntCondMutex9ConditionEv
libpt.so.2.10.11:_ZN13PIntCondMutexC1EiiNS_9OperationE
libpt.so.2.10.11:_ZN13PIntCondMutexC2EiiNS_9OperationE
libpt.so.2.10.11:_ZN13PIntCondMutexaSEi
libpt.so.2.10.11:_ZN13PIntCondMutexmIEi
libpt.so.2.10.11:_ZN13PIntCondMutexmmEv
libpt.so.2.10.11:_ZN13PIntCondMutexpLEi
libpt.so.2.10.11:_ZN13PIntCondMutexppEv
libpt.so.2.10.11:_ZN13PNotifierList12RemoveTargetEP7PObject
libpt.so.2.10.11:_ZN13PNotifierList4FireER7PObjectl
libpt.so.2.10.11:_ZN13PNotifierList4MoveERS_
libpt.so.2.10.11:_ZN13PNotifierList7CleanupEv
libpt.so.2.10.11:_ZN13PQueueChannel4OpenEi
libpt.so.2.10.11:_ZN13PQueueChannel4ReadEPvi
libpt.so.2.10.11:_ZN13PQueueChannel5CloseEv
libpt.so.2.10.11:_ZN13PQueueChannel5WriteEPKvi
libpt.so.2.10.11:_ZN13PQueueChannelC1Ei
libpt.so.2.10.11:_ZN13PQueueChannelC2Ei
libpt.so.2.10.11:_ZN13PQueueChannelD0Ev
libpt.so.2.10.11:_ZN13PQueueChannelD1Ev
libpt.so.2.10.11:_ZN13PQueueChannelD2Ev
libpt.so.2.10.11:_ZN13PRegisterPage12OnLoadedTextER12PHTTPRequestR7PString
libpt.so.2.10.11:_ZN13PRegisterPage4PostER12PHTTPRequestRK15PStringToStringR5PHTML
libpt.so.2.10.11:_ZN13PRegisterPage8LoadTextER12PHTTPRequest
libpt.so.2.10.11:_ZN13PRegisterPageC1ER19PHTTPServiceProcessRK14PHTTPAuthority
libpt.so.2.10.11:_ZN13PRegisterPageC2ER19PHTTPServiceProcessRK14PHTTPAuthority
libpt.so.2.10.11:_ZN13PSNMP_Message6DecodeER11PASN_Stream
libpt.so.2.10.11:_ZN13PSNMP_MessageC1EjN11PASN_Object8TagClassE
libpt.so.2.10.11:_ZN13PSNMP_MessageC2EjN11PASN_Object8TagClassE
libpt.so.2.10.11:_ZN13PSNMP_VarBind6DecodeER11PASN_Stream
libpt.so.2.10.11:_ZN13PSNMP_VarBindC1EjN11PASN_Object8TagClassE
libpt.so.2.10.11:_ZN13PSNMP_VarBindC2EjN11PASN_Object8TagClassE
libpt.so.2.10.11:_ZN13PSecureConfig12ResetPendingEv
libpt.so.2.10.11:_ZN13PSecureConfig15ValidatePendingEv
libpt.so.2.10.11:_ZN13PSecureConfigC1ERKN10PTEACypher3KeyEPKPKciN7PConfig6SourceE
libpt.so.2.10.11:_ZN13PSecureConfigC1ERKN10PTEACypher3KeyERK12PStringArrayN7PConfig6SourceE
libpt.so.2.10.11:_ZN13PSecureConfigC2ERKN10PTEACypher3KeyEPKPKciN7PConfig6SourceE
libpt.so.2.10.11:_ZN13PSecureConfigC2ERKN10PTEACypher3KeyERK12PStringArrayN7PConfig6SourceE
libpt.so.2.10.11:_ZN13PServiceMacroC1EPKcb
libpt.so.2.10.11:_ZN13PServiceMacroC1ERK15PCaselessStringb
libpt.so.2.10.11:_ZN13PServiceMacroC2EPKcb
libpt.so.2.10.11:_ZN13PServiceMacroC2ERK15PCaselessStringb
libpt.so.2.10.11:_ZN13PSimpleThread4MainEv
libpt.so.2.10.11:_ZN13PSimpleThreadC1ERK17PNotifierTemplateIlElN7PThread14AutoDeleteFlagENS4_8PriorityERK7PStringi
libpt.so.2.10.11:_ZN13PSimpleThreadC2ERK17PNotifierTemplateIlElN7PThread14AutoDeleteFlagENS4_8PriorityERK7PStringi
libpt.so.2.10.11:_ZN13PSmartPointerC1ERKS_
libpt.so.2.10.11:_ZN13PSmartPointerC2ERKS_
libpt.so.2.10.11:_ZN13PSmartPointerD0Ev
libpt.so.2.10.11:_ZN13PSmartPointerD1Ev
libpt.so.2.10.11:_ZN13PSmartPointerD2Ev
libpt.so.2.10.11:_ZN13PSmartPointeraSERKS_
libpt.so.2.10.11:_ZN13PSocks4Socket16SendSocksCommandER10PTCPSockethPKcN9PIPSocket7AddressE
libpt.so.2.10.11:_ZN13PSocks4Socket20ReceiveSocksResponseER10PTCPSocketRN9PIPSocket7AddressERt
libpt.so.2.10.11:_ZN13PSocks4SocketC1ERK7PStringt
libpt.so.2.10.11:_ZN13PSocks4SocketC1Et
libpt.so.2.10.11:_ZN13PSocks4SocketC2ERK7PStringt
libpt.so.2.10.11:_ZN13PSocks4SocketC2Et
libpt.so.2.10.11:_ZN13PSocks5SocketC1ERK7PStringt
libpt.so.2.10.11:_ZN13PSocks5SocketC1Et
libpt.so.2.10.11:_ZN13PSocks5SocketC2ERK7PStringt
libpt.so.2.10.11:_ZN13PSocks5SocketC2Et
libpt.so.2.10.11:_ZN13PSoundChannel10GetBuffersERiS0_
libpt.so.2.10.11:_ZN13PSoundChannel10RecordFileERK9PFilePath
libpt.so.2.10.11:_ZN13PSoundChannel10SetBuffersEii
libpt.so.2.10.11:_ZN13PSoundChannel11RecordSoundER6PSound
libpt.so.2.10.11:_ZN13PSoundChannel13CreateChannelERK7PStringP14PPluginManager
libpt.so.2.10.11:_ZN13PSoundChannel14GetDeviceNamesENS_10DirectionsEP14PPluginManager
libpt.so.2.10.11:_ZN13PSoundChannel14GetDriverNamesEP14PPluginManager
libpt.so.2.10.11:_ZN13PSoundChannel14StartRecordingEv
libpt.so.2.10.11:_ZN13PSoundChannel16GetDefaultDeviceENS_10DirectionsE
libpt.so.2.10.11:_ZN13PSoundChannel16GetDirectionTextENS_10DirectionsE
libpt.so.2.10.11:_ZN13PSoundChannel16HasPlayCompletedEv
libpt.so.2.10.11:_ZN13PSoundChannel18IsRecordBufferFullEv
libpt.so.2.10.11:_ZN13PSoundChannel19CreateChannelByNameERK7PStringNS_10DirectionsEP14PPluginManager
libpt.so.2.10.11:_ZN13PSoundChannel19CreateOpenedChannelERK7PStringS2_NS_10DirectionsEjjjP14PPluginManager
libpt.so.2.10.11:_ZN13PSoundChannel21GetDriversDeviceNamesERK7PStringNS_10DirectionsEP14PPluginManager
libpt.so.2.10.11:_ZN13PSoundChannel21WaitForPlayCompletionEv
libpt.so.2.10.11:_ZN13PSoundChannel23AreAllRecordBuffersFullEv
libpt.so.2.10.11:_ZN13PSoundChannel23WaitForRecordBufferFullEv
libpt.so.2.10.11:_ZN13PSoundChannel27WaitForAllRecordBuffersFullEv
libpt.so.2.10.11:_ZN13PSoundChannel4OpenERK7PStringNS_10DirectionsEjjj
libpt.so.2.10.11:_ZN13PSoundChannel4ReadEPvi
libpt.so.2.10.11:_ZN13PSoundChannel5AbortEv
libpt.so.2.10.11:_ZN13PSoundChannel5CloseEv
libpt.so.2.10.11:_ZN13PSoundChannel5WriteEPKvi
libpt.so.2.10.11:_ZN13PSoundChannel5WriteEPKviS1_
libpt.so.2.10.11:_ZN13PSoundChannel7GetMuteERb
libpt.so.2.10.11:_ZN13PSoundChannel7SetMuteEb
libpt.so.2.10.11:_ZN13PSoundChannel8PlayFileERK9PFilePathb
libpt.so.2.10.11:_ZN13PSoundChannel9GetVolumeERj
libpt.so.2.10.11:_ZN13PSoundChannel9PlaySoundERK6PSoundb
libpt.so.2.10.11:_ZN13PSoundChannel9SetFormatEjjj
libpt.so.2.10.11:_ZN13PSoundChannel9SetVolumeEj
libpt.so.2.10.11:_ZN13PSoundChannelC1ERK7PStringNS_10DirectionsEjjj
libpt.so.2.10.11:_ZN13PSoundChannelC1Ev
libpt.so.2.10.11:_ZN13PSoundChannelC2ERK7PStringNS_10DirectionsEjjj
libpt.so.2.10.11:_ZN13PSoundChannelC2Ev
libpt.so.2.10.11:_ZN13PSoundChannelD0Ev
libpt.so.2.10.11:_ZN13PSoundChannelD1Ev
libpt.so.2.10.11:_ZN13PSoundChannelD2Ev
libpt.so.2.10.11:_ZN13PStringStream14AssignContentsERK10PContainer
libpt.so.2.10.11:_ZN13PStringStream6Buffer4syncEv
libpt.so.2.10.11:_ZN13PStringStream6Buffer7seekoffElSt12_Ios_SeekdirSt13_Ios_Openmode
libpt.so.2.10.11:_ZN13PStringStream6Buffer7seekposESt4fposI11__mbstate_tESt13_Ios_Openmode
libpt.so.2.10.11:_ZN13PStringStream6Buffer8overflowEi
libpt.so.2.10.11:_ZN13PStringStream6Buffer9underflowEv
libpt.so.2.10.11:_ZN13PStringStream6BufferC1ERKS0_
libpt.so.2.10.11:_ZN13PStringStream6BufferC1ERS_i
libpt.so.2.10.11:_ZN13PStringStream6BufferC2ERKS0_
libpt.so.2.10.11:_ZN13PStringStream6BufferC2ERS_i
libpt.so.2.10.11:_ZN13PStringStream6BufferaSERKS0_
libpt.so.2.10.11:_ZN13PStringStream9MakeEmptyEv
libpt.so.2.10.11:_ZN13PStringStreamC1EPKc
libpt.so.2.10.11:_ZN13PStringStreamC1ERK7PString
libpt.so.2.10.11:_ZN13PStringStreamC1Ei
libpt.so.2.10.11:_ZN13PStringStreamC1Ev
libpt.so.2.10.11:_ZN13PStringStreamC2EPKc
libpt.so.2.10.11:_ZN13PStringStreamC2ERK7PString
libpt.so.2.10.11:_ZN13PStringStreamC2Ei
libpt.so.2.10.11:_ZN13PStringStreamC2Ev
libpt.so.2.10.11:_ZN13PStringStreamD0Ev
libpt.so.2.10.11:_ZN13PStringStreamD1Ev
libpt.so.2.10.11:_ZN13PStringStreamD2Ev
libpt.so.2.10.11:_ZN13PStringStreamaSEPKc
libpt.so.2.10.11:_ZN13PStringStreamaSERK7PString
libpt.so.2.10.11:_ZN13PStringStreamaSERKS_
libpt.so.2.10.11:_ZN13PStringStreamaSEc
libpt.so.2.10.11:_ZN13PSyncPointAck11AcknowledgeEv
libpt.so.2.10.11:_ZN13PSyncPointAck6SignalERK13PTimeInterval
libpt.so.2.10.11:_ZN13PSyncPointAck6SignalEv
libpt.so.2.10.11:_ZN13PTelnetSocket11OnOutOfBandEPKvi
libpt.so.2.10.11:_ZN13PTelnetSocket11OnSubOptionEhPKhi
libpt.so.2.10.11:_ZN13PTelnetSocket11SendCommandENS_7CommandEi
libpt.so.2.10.11:_ZN13PTelnetSocket12SetLocalEchoEb
libpt.so.2.10.11:_ZN13PTelnetSocket13SendSubOptionEhPKhii
libpt.so.2.10.11:_ZN13PTelnetSocket13SetWindowSizeEtt
libpt.so.2.10.11:_ZN13PTelnetSocket15SetTerminalTypeERK7PString
libpt.so.2.10.11:_ZN13PTelnetSocket4OnDoEh
libpt.so.2.10.11:_ZN13PTelnetSocket4ReadEPvi
libpt.so.2.10.11:_ZN13PTelnetSocket5WriteEPKvi
libpt.so.2.10.11:_ZN13PTelnetSocket6AcceptER7PSocket
libpt.so.2.10.11:_ZN13PTelnetSocket6OnDontEh
libpt.so.2.10.11:_ZN13PTelnetSocket6OnWillEh
libpt.so.2.10.11:_ZN13PTelnetSocket6OnWontEh
libpt.so.2.10.11:_ZN13PTelnetSocket6SendDoEh
libpt.so.2.10.11:_ZN13PTelnetSocket7ConnectERK7PString
libpt.so.2.10.11:_ZN13PTelnetSocket8SendDontEh
libpt.so.2.10.11:_ZN13PTelnetSocket8SendWillEh
libpt.so.2.10.11:_ZN13PTelnetSocket8SendWontEh
libpt.so.2.10.11:_ZN13PTelnetSocket9ConstructEv
libpt.so.2.10.11:_ZN13PTelnetSocket9OnCommandEh
libpt.so.2.10.11:_ZN13PTelnetSocketC1ERK7PString
libpt.so.2.10.11:_ZN13PTelnetSocketC1Ev
libpt.so.2.10.11:_ZN13PTelnetSocketC2ERK7PString
libpt.so.2.10.11:_ZN13PTelnetSocketC2Ev
libpt.so.2.10.11:_ZN13PTimeInterval11SetIntervalExllli
libpt.so.2.10.11:_ZN13PTimeInterval15SetMilliSecondsEx
libpt.so.2.10.11:_ZN13PTimeInterval8ReadFromERSi
libpt.so.2.10.11:_ZN13PTimeIntervalC1ERK7PString
libpt.so.2.10.11:_ZN13PTimeIntervalC1Elllli
libpt.so.2.10.11:_ZN13PTimeIntervalC1Ex
libpt.so.2.10.11:_ZN13PTimeIntervalC2ERK7PString
libpt.so.2.10.11:_ZN13PTimeIntervalC2Elllli
libpt.so.2.10.11:_ZN13PTimeIntervalC2Ex
libpt.so.2.10.11:_ZN13PTimeIntervaldVEi
libpt.so.2.10.11:_ZN13PTimeIntervalmIERKS_
libpt.so.2.10.11:_ZN13PTimeIntervalmLEi
libpt.so.2.10.11:_ZN13PTimeIntervalpLERKS_
libpt.so.2.10.11:_ZN13PVXMLPlayable4OpenER12PVXMLChannelRK7PStringiib
libpt.so.2.10.11:_ZN13PVXMLPlayable6OnStopEv
libpt.so.2.10.11:_ZN13PVXMLPlayable7OnDelayEv
libpt.so.2.10.11:_ZN13PVXMLPlayable8OnRepeatEv
libpt.so.2.10.11:_ZN13PVXMLPlayableC1Ev
libpt.so.2.10.11:_ZN13PVXMLPlayableC2Ev
libpt.so.2.10.11:_ZN13PVideoChannel11FlowControlEPKv
libpt.so.2.10.11:_ZN13PVideoChannel12EnableAccessEv
libpt.so.2.10.11:_ZN13PVideoChannel12GetGrabWidthEv
libpt.so.2.10.11:_ZN13PVideoChannel12IsRenderOpenEv
libpt.so.2.10.11:_ZN13PVideoChannel13DisableDecodeEv
libpt.so.2.10.11:_ZN13PVideoChannel13GetGrabHeightEv
libpt.so.2.10.11:_ZN13PVideoChannel13IsGrabberOpenEv
libpt.so.2.10.11:_ZN13PVideoChannel14DisplayRawDataEPv
libpt.so.2.10.11:_ZN13PVideoChannel14GetDeviceNamesENS_10DirectionsE
libpt.so.2.10.11:_ZN13PVideoChannel14GetRenderWidthEv
libpt.so.2.10.11:_ZN13PVideoChannel14GetVideoPlayerEv
libpt.so.2.10.11:_ZN13PVideoChannel14GetVideoReaderEv
libpt.so.2.10.11:_ZN13PVideoChannel14RestrictAccessEv
libpt.so.2.10.11:_ZN13PVideoChannel15GetRenderHeightEv
libpt.so.2.10.11:_ZN13PVideoChannel16CloseVideoPlayerEv
libpt.so.2.10.11:_ZN13PVideoChannel16CloseVideoReaderEv
libpt.so.2.10.11:_ZN13PVideoChannel16GetDefaultDeviceENS_10DirectionsE
libpt.so.2.10.11:_ZN13PVideoChannel16ToggleVFlipInputEv
libpt.so.2.10.11:_ZN13PVideoChannel17AttachVideoPlayerEP18PVideoOutputDeviceb
libpt.so.2.10.11:_ZN13PVideoChannel17AttachVideoReaderEP17PVideoInputDeviceb
libpt.so.2.10.11:_ZN13PVideoChannel18SetRenderFrameSizeEii
libpt.so.2.10.11:_ZN13PVideoChannel18SetRenderFrameSizeEiiii
libpt.so.2.10.11:_ZN13PVideoChannel19SetGrabberFrameSizeEii
libpt.so.2.10.11:_ZN13PVideoChannel4OpenERK7PStringNS_10DirectionsE
libpt.so.2.10.11:_ZN13PVideoChannel4ReadEPvi
libpt.so.2.10.11:_ZN13PVideoChannel5CloseEv
libpt.so.2.10.11:_ZN13PVideoChannel5WriteEPKvi
libpt.so.2.10.11:_ZN13PVideoChannel5WriteEPKviPv
libpt.so.2.10.11:_ZN13PVideoChannel6RedrawEPKv
libpt.so.2.10.11:_ZN13PVideoChannelC1ERK7PStringNS_10DirectionsE
libpt.so.2.10.11:_ZN13PVideoChannelC1Ev
libpt.so.2.10.11:_ZN13PVideoChannelC2ERK7PStringNS_10DirectionsE
libpt.so.2.10.11:_ZN13PVideoChannelC2Ev
libpt.so.2.10.11:_ZN13PVideoChannelD0Ev
libpt.so.2.10.11:_ZN13PVideoChannelD1Ev
libpt.so.2.10.11:_ZN13PVideoChannelD2Ev
libpt.so.2.10.11:_ZN13P_BGR24_RGB247ConvertEPKhPhPi
libpt.so.2.10.11:_ZN13P_BGR24_RGB247ConvertEPKhPhjPi
libpt.so.2.10.11:_ZN13P_BGR24_RGB327ConvertEPKhPhPi
libpt.so.2.10.11:_ZN13P_BGR24_RGB327ConvertEPKhPhjPi
libpt.so.2.10.11:_ZN13P_BGR32_RGB247ConvertEPKhPhPi
libpt.so.2.10.11:_ZN13P_BGR32_RGB247ConvertEPKhPhjPi
libpt.so.2.10.11:_ZN13P_BGR32_RGB327ConvertEPKhPhPi
libpt.so.2.10.11:_ZN13P_BGR32_RGB327ConvertEPKhPhjPi
libpt.so.2.10.11:_ZN13P_MJPEG_BGR247ConvertEPKhPhPi
libpt.so.2.10.11:_ZN13P_MJPEG_BGR247ConvertEPKhPhjPi
libpt.so.2.10.11:_ZN13P_MJPEG_RGB247ConvertEPKhPhPi
libpt.so.2.10.11:_ZN13P_MJPEG_RGB247ConvertEPKhPhjPi
libpt.so.2.10.11:_ZN13P_RGB24_BGR247ConvertEPKhPhPi
libpt.so.2.10.11:_ZN13P_RGB24_BGR247ConvertEPKhPhjPi
libpt.so.2.10.11:_ZN13P_RGB24_BGR327ConvertEPKhPhPi
libpt.so.2.10.11:_ZN13P_RGB24_BGR327ConvertEPKhPhjPi
libpt.so.2.10.11:_ZN13P_RGB24_RGB327ConvertEPKhPhPi
libpt.so.2.10.11:_ZN13P_RGB24_RGB327ConvertEPKhPhjPi
libpt.so.2.10.11:_ZN13P_RGB32_BGR247ConvertEPKhPhPi
libpt.so.2.10.11:_ZN13P_RGB32_BGR247ConvertEPKhPhjPi
libpt.so.2.10.11:_ZN13P_RGB32_BGR327ConvertEPKhPhPi
libpt.so.2.10.11:_ZN13P_RGB32_BGR327ConvertEPKhPhjPi
libpt.so.2.10.11:_ZN13P_RGB32_RGB247ConvertEPKhPhPi
libpt.so.2.10.11:_ZN13P_RGB32_RGB247ConvertEPKhPhjPi
libpt.so.2.10.11:_ZN14PASN_BMPString11SetValueRawEPKwi
libpt.so.2.10.11:_ZN14PASN_BMPString15SetCharacterSetEN11PASN_Object14ConstraintTypeEPKc
libpt.so.2.10.11:_ZN14PASN_BMPString15SetCharacterSetEN11PASN_Object14ConstraintTypeERK10PBaseArrayIwE
libpt.so.2.10.11:_ZN14PASN_BMPString15SetCharacterSetEN11PASN_Object14ConstraintTypeEjj
libpt.so.2.10.11:_ZN14PASN_BMPString16IsLegalCharacterEt
libpt.so.2.10.11:_ZN14PASN_BMPString6DecodeER11PASN_Stream
libpt.so.2.10.11:_ZN14PASN_BMPString9ConstructEv
libpt.so.2.10.11:_ZN14PASN_BMPString9DecodeBERER11PBER_Streamj
libpt.so.2.10.11:_ZN14PASN_BMPString9DecodePERER11PPER_Stream
libpt.so.2.10.11:_ZN14PASN_BMPStringC1EPKc
libpt.so.2.10.11:_ZN14PASN_BMPStringC1ERK10PBaseArrayIwE
libpt.so.2.10.11:_ZN14PASN_BMPStringC1ERKS_
libpt.so.2.10.11:_ZN14PASN_BMPStringC1EjN11PASN_Object8TagClassE
libpt.so.2.10.11:_ZN14PASN_BMPStringC2EPKc
libpt.so.2.10.11:_ZN14PASN_BMPStringC2ERK10PBaseArrayIwE
libpt.so.2.10.11:_ZN14PASN_BMPStringC2ERKS_
libpt.so.2.10.11:_ZN14PASN_BMPStringC2EjN11PASN_Object8TagClassE
libpt.so.2.10.11:_ZN14PASN_BMPStringaSERK10PBaseArrayIwE
libpt.so.2.10.11:_ZN14PASN_BMPStringaSERKS_
libpt.so.2.10.11:_ZN14PASN_BitString19SetConstraintBoundsEN11PASN_Object14ConstraintTypeEij
libpt.so.2.10.11:_ZN14PASN_BitString29DecodeSequenceExtensionBitmapER11PPER_Stream
libpt.so.2.10.11:_ZN14PASN_BitString3SetEj
libpt.so.2.10.11:_ZN14PASN_BitString5ClearEj
libpt.so.2.10.11:_ZN14PASN_BitString6DecodeER11PASN_Stream
libpt.so.2.10.11:_ZN14PASN_BitString6InvertEj
libpt.so.2.10.11:_ZN14PASN_BitString7SetDataEjPKhi
libpt.so.2.10.11:_ZN14PASN_BitString7SetDataEjRK10PBYTEArray
libpt.so.2.10.11:_ZN14PASN_BitString7SetSizeEj
libpt.so.2.10.11:_ZN14PASN_BitString9DecodeBERER11PBER_Streamj
libpt.so.2.10.11:_ZN14PASN_BitString9DecodePERER11PPER_Stream
libpt.so.2.10.11:_ZN14PASN_BitStringC1ERKS_
libpt.so.2.10.11:_ZN14PASN_BitStringC1EjN11PASN_Object8TagClassEj
libpt.so.2.10.11:_ZN14PASN_BitStringC1EjPKh
libpt.so.2.10.11:_ZN14PASN_BitStringC2ERKS_
libpt.so.2.10.11:_ZN14PASN_BitStringC2EjN11PASN_Object8TagClassEj
libpt.so.2.10.11:_ZN14PASN_BitStringC2EjPKh
libpt.so.2.10.11:_ZN14PASN_BitStringaSERKS_
libpt.so.2.10.11:_ZN14PASN_IA5StringC1EPKc
libpt.so.2.10.11:_ZN14PASN_IA5StringC1EjN11PASN_Object8TagClassE
libpt.so.2.10.11:_ZN14PASN_IA5StringC2EPKc
libpt.so.2.10.11:_ZN14PASN_IA5StringC2EjN11PASN_Object8TagClassE
libpt.so.2.10.11:_ZN14PASN_IA5StringaSEPKc
libpt.so.2.10.11:_ZN14PASN_IA5StringaSERK7PString
libpt.so.2.10.11:_ZN14PAbstractArray10GetPointerEi
libpt.so.2.10.11:_ZN14PAbstractArray11ConcatenateERKS_
libpt.so.2.10.11:_ZN14PAbstractArray12CopyContentsERKS_
libpt.so.2.10.11:_ZN14PAbstractArray13CloneContentsEPKS_
libpt.so.2.10.11:_ZN14PAbstractArray15DestroyContentsEv
libpt.so.2.10.11:_ZN14PAbstractArray15InternalSetSizeEib
libpt.so.2.10.11:_ZN14PAbstractArray15ReadElementFromERSii
libpt.so.2.10.11:_ZN14PAbstractArray6AttachEPKvi
libpt.so.2.10.11:_ZN14PAbstractArray7SetSizeEi
libpt.so.2.10.11:_ZN14PAbstractArray8ReadFromERSi
libpt.so.2.10.11:_ZN14PAbstractArrayC1ER19PContainerReferencei
libpt.so.2.10.11:_ZN14PAbstractArrayC1EiPKvib
libpt.so.2.10.11:_ZN14PAbstractArrayC1Eii
libpt.so.2.10.11:_ZN14PAbstractArrayC2ER19PContainerReferencei
libpt.so.2.10.11:_ZN14PAbstractArrayC2EiPKvib
libpt.so.2.10.11:_ZN14PAbstractArrayC2Eii
libpt.so.2.10.11:_ZN14PAdaptiveDelay5DelayEi
libpt.so.2.10.11:_ZN14PAdaptiveDelay7RestartEv
libpt.so.2.10.11:_ZN14PAdaptiveDelayC1Ejj
libpt.so.2.10.11:_ZN14PAdaptiveDelayC2Ejj
libpt.so.2.10.11:_ZN14PFactoryLoader13PYUVFile_linkEv
libpt.so.2.10.11:_ZN14PFactoryLoader16PSTUNClient_linkEv
libpt.so.2.10.11:_ZN14PFactoryLoader19PURL_FtpLoader_linkEv
libpt.so.2.10.11:_ZN14PFactoryLoader20PSSLInitialiser_linkEv
libpt.so.2.10.11:_ZN14PFactoryLoader20PURL_DataLoader_linkEv
libpt.so.2.10.11:_ZN14PFactoryLoader20PURL_FileLoader_linkEv
libpt.so.2.10.11:_ZN14PFactoryLoader20PURL_HttpLoader_linkEv
libpt.so.2.10.11:_ZN14PFactoryLoader22PInterfaceMonitor_linkEv
libpt.so.2.10.11:_ZN14PFactoryLoader22PWAVFileFormatPCM_linkEv
libpt.so.2.10.11:_ZN14PFactoryLoader24PluginLoaderStartup_linkEv
libpt.so.2.10.11:_ZN14PFactoryLoader27PTextToSpeech_Festival_linkEv
libpt.so.2.10.11:_ZN14PFactoryLoader28PDevicePluginPNatMethod_linkEv
libpt.so.2.10.11:_ZN14PFactoryLoader30PDevicePluginSoundChannel_linkEv
libpt.so.2.10.11:_ZN14PHTTPAuthority20DecodeBasicAuthorityERK7PStringRS0_S3_
libpt.so.2.10.11:_ZN14PHTTPDateField8SetValueERK7PString
libpt.so.2.10.11:_ZN14PHTTPDateFieldC1EPKcRK5PTimeNS2_10TimeFormatE
libpt.so.2.10.11:_ZN14PHTTPDateFieldC2EPKcRK5PTimeNS2_10TimeFormatE
libpt.so.2.10.11:_ZN14PHTTPDirectory11LoadHeadersER12PHTTPRequest
libpt.so.2.10.11:_ZN14PHTTPDirectory13CreateRequestERK4PURLRK9PMIMEInfoRK14PMultiPartListR11PHTTPServer
libpt.so.2.10.11:_ZN14PHTTPDirectory14CheckAuthorityER11PHTTPServerRK12PHTTPRequestRK19PHTTPConnectionInfo
libpt.so.2.10.11:_ZN14PHTTPDirectory18FindAuthorisationsERK10PDirectoryR7PStringR15PStringToString
libpt.so.2.10.11:_ZN14PHTTPDirectory19EnableAuthorisationERK7PString
libpt.so.2.10.11:_ZN14PHTTPDirectory8LoadTextER12PHTTPRequest
libpt.so.2.10.11:_ZN14PHTTPDirectoryC1ERK4PURLRK10PDirectory
libpt.so.2.10.11:_ZN14PHTTPDirectoryC1ERK4PURLRK10PDirectoryRK14PHTTPAuthority
libpt.so.2.10.11:_ZN14PHTTPDirectoryC2ERK4PURLRK10PDirectory
libpt.so.2.10.11:_ZN14PHTTPDirectoryC2ERK4PURLRK10PDirectoryRK14PHTTPAuthority
libpt.so.2.10.11:_ZN14PHashTableInfo12GetElementAtERK7PObject
libpt.so.2.10.11:_ZN14PHashTableInfo13AppendElementEP7PObjectS1_
libpt.so.2.10.11:_ZN14PHashTableInfo13RemoveElementERK7PObject
libpt.so.2.10.11:_ZN14PHashTableInfo15DestroyContentsEv
libpt.so.2.10.11:_ZN14PHashTableInfo16SetLastElementAtEiRP17PHashTableElement
libpt.so.2.10.11:_ZN14PMessageDigest14CompleteDigestERNS_6ResultE
libpt.so.2.10.11:_ZN14PMessageDigest14CompleteDigestEv
libpt.so.2.10.11:_ZN14PMessageDigest7ProcessEPKc
libpt.so.2.10.11:_ZN14PMessageDigest7ProcessEPKvi
libpt.so.2.10.11:_ZN14PMessageDigest7ProcessERK10PBYTEArray
libpt.so.2.10.11:_ZN14PMessageDigest7ProcessERK7PString
libpt.so.2.10.11:_ZN14PMessageDigestC1Ev
libpt.so.2.10.11:_ZN14PMessageDigestC2Ev
libpt.so.2.10.11:_ZN14PMultiPartList6DecodeERK7PStringRK15PStringToString
libpt.so.2.10.11:_ZN14PPluginManager10LoadPluginERK7PString
libpt.so.2.10.11:_ZN14PPluginManager10OnShutdownEv
libpt.so.2.10.11:_ZN14PPluginManager11AddNotifierERK17PNotifierTemplateIlEb
libpt.so.2.10.11:_ZN14PPluginManager12CallNotifierER9PDynaLinkNS_16NotificationCodeE
libpt.so.2.10.11:_ZN14PPluginManager13AddPluginDirsERK7PString
libpt.so.2.10.11:_ZN14PPluginManager13GetPluginDirsEv
libpt.so.2.10.11:_ZN14PPluginManager14RemoveNotifierERK17PNotifierTemplateIlE
libpt.so.2.10.11:_ZN14PPluginManager15RegisterServiceERK7PStringS2_P24PPluginServiceDescriptor
libpt.so.2.10.11:_ZN14PPluginManager16GetPluginManagerEv
libpt.so.2.10.11:_ZN14PPluginManager19LoadPluginDirectoryERK10PDirectory
libpt.so.2.10.11:_ZN14PPluginManager19LoadPluginDirectoryERK10PDirectoryRK11PStringList
libpt.so.2.10.11:_ZN14PRFC1155_GaugeC1EjN11PASN_Object8TagClassE
libpt.so.2.10.11:_ZN14PRFC1155_GaugeC2EjN11PASN_Object8TagClassE
libpt.so.2.10.11:_ZN14PRFC1155_GaugeaSEi
libpt.so.2.10.11:_ZN14PRFC1155_GaugeaSEj
libpt.so.2.10.11:_ZN14PRFC822Channel10NewMessageENS_9DirectionE
libpt.so.2.10.11:_ZN14PRFC822Channel10SetSubjectERK7PString
libpt.so.2.10.11:_ZN14PRFC822Channel10SubjectTagEv
libpt.so.2.10.11:_ZN14PRFC822Channel11ReceivedTagEv
libpt.so.2.10.11:_ZN14PRFC822Channel12MessageIDTagEv
libpt.so.2.10.11:_ZN14PRFC822Channel12SendWithSMTPEP11PSMTPClient
libpt.so.2.10.11:_ZN14PRFC822Channel12SendWithSMTPERK7PString
libpt.so.2.10.11:_ZN14PRFC822Channel12SetToAddressERK7PString
libpt.so.2.10.11:_ZN14PRFC822Channel13ReturnPathTagEv
libpt.so.2.10.11:_ZN14PRFC822Channel14MimeVersionTagEv
libpt.so.2.10.11:_ZN14PRFC822Channel14SetContentTypeERK7PString
libpt.so.2.10.11:_ZN14PRFC822Channel14SetFromAddressERK7PString
libpt.so.2.10.11:_ZN14PRFC822Channel14SetHeaderFieldERK7PStringS2_
libpt.so.2.10.11:_ZN14PRFC822Channel16MultipartMessageERK7PString
libpt.so.2.10.11:_ZN14PRFC822Channel16MultipartMessageEv
libpt.so.2.10.11:_ZN14PRFC822Channel19SetTransferEncodingERK7PStringb
libpt.so.2.10.11:_ZN14PRFC822Channel20SetContentAttachmentERK9PFilePath
libpt.so.2.10.11:_ZN14PRFC822Channel5CCTagEv
libpt.so.2.10.11:_ZN14PRFC822Channel5CloseEv
libpt.so.2.10.11:_ZN14PRFC822Channel5SetCCERK7PString
libpt.so.2.10.11:_ZN14PRFC822Channel5ToTagEv
libpt.so.2.10.11:_ZN14PRFC822Channel5WriteEPKvi
libpt.so.2.10.11:_ZN14PRFC822Channel6BCCTagEv
libpt.so.2.10.11:_ZN14PRFC822Channel6OnOpenEv
libpt.so.2.10.11:_ZN14PRFC822Channel6SetBCCERK7PString
libpt.so.2.10.11:_ZN14PRFC822Channel7DateTagEv
libpt.so.2.10.11:_ZN14PRFC822Channel7FromTagEv
libpt.so.2.10.11:_ZN14PRFC822Channel8NextPartERK7PString
libpt.so.2.10.11:_ZN14PRFC822Channel9MailerTagEv
libpt.so.2.10.11:_ZN14PRFC822ChannelC1ENS_9DirectionE
libpt.so.2.10.11:_ZN14PRFC822ChannelC2ENS_9DirectionE
libpt.so.2.10.11:_ZN14PRFC822ChannelD0Ev
libpt.so.2.10.11:_ZN14PRFC822ChannelD1Ev
libpt.so.2.10.11:_ZN14PRFC822ChannelD2Ev
libpt.so.2.10.11:_ZN14PSNMP_Trap_PDU6DecodeER11PASN_Stream
libpt.so.2.10.11:_ZN14PSNMP_Trap_PDUC1EjN11PASN_Object8TagClassE
libpt.so.2.10.11:_ZN14PSNMP_Trap_PDUC2EjN11PASN_Object8TagClassE
libpt.so.2.10.11:_ZN14PSSLPrivateKey4LoadERK9PFilePath13PSSLFileTypes
libpt.so.2.10.11:_ZN14PSSLPrivateKey4SaveERK9PFilePathb13PSSLFileTypes
libpt.so.2.10.11:_ZN14PSSLPrivateKey6CreateEjPFviiPvES0_
libpt.so.2.10.11:_ZN14PSSLPrivateKeyC1EPKhi
libpt.so.2.10.11:_ZN14PSSLPrivateKeyC1ERK10PBYTEArray
libpt.so.2.10.11:_ZN14PSSLPrivateKeyC1ERK9PFilePath13PSSLFileTypes
libpt.so.2.10.11:_ZN14PSSLPrivateKeyC1ERKS_
libpt.so.2.10.11:_ZN14PSSLPrivateKeyC1EjPFviiPvES0_
libpt.so.2.10.11:_ZN14PSSLPrivateKeyC1Ev
libpt.so.2.10.11:_ZN14PSSLPrivateKeyC2EPKhi
libpt.so.2.10.11:_ZN14PSSLPrivateKeyC2ERK10PBYTEArray
libpt.so.2.10.11:_ZN14PSSLPrivateKeyC2ERK9PFilePath13PSSLFileTypes
libpt.so.2.10.11:_ZN14PSSLPrivateKeyC2ERKS_
libpt.so.2.10.11:_ZN14PSSLPrivateKeyC2EjPFviiPvES0_
libpt.so.2.10.11:_ZN14PSSLPrivateKeyC2Ev
libpt.so.2.10.11:_ZN14PSSLPrivateKeyD0Ev
libpt.so.2.10.11:_ZN14PSSLPrivateKeyD1Ev
libpt.so.2.10.11:_ZN14PSSLPrivateKeyD2Ev
libpt.so.2.10.11:_ZN14PSSLPrivateKeyaSERKS_
libpt.so.2.10.11:_ZN14PSTUNUDPSocket15GetLocalAddressERN9PIPSocket7AddressE
libpt.so.2.10.11:_ZN14PSTUNUDPSocket15GetLocalAddressERN9PIPSocket7AddressERt
libpt.so.2.10.11:_ZN14PSTUNUDPSocketC1Ev
libpt.so.2.10.11:_ZN14PSTUNUDPSocketC2Ev
libpt.so.2.10.11:_ZN14PSerialChannel10ClearBreakEv
libpt.so.2.10.11:_ZN14PSerialChannel11SetDataBitsEh
libpt.so.2.10.11:_ZN14PSerialChannel11SetStopBitsEh
libpt.so.2.10.11:_ZN14PSerialChannel12GetPortNamesEv
libpt.so.2.10.11:_ZN14PSerialChannel12SaveSettingsER7PConfig
libpt.so.2.10.11:_ZN14PSerialChannel19SetInputFlowControlENS_11FlowControlE
libpt.so.2.10.11:_ZN14PSerialChannel20SetOutputFlowControlENS_11FlowControlE
libpt.so.2.10.11:_ZN14PSerialChannel4OpenER7PConfig
libpt.so.2.10.11:_ZN14PSerialChannel4OpenERK7PStringjhNS_6ParityEhNS_11FlowControlES4_
libpt.so.2.10.11:_ZN14PSerialChannel5CloseEv
libpt.so.2.10.11:_ZN14PSerialChannel6GetCTSEv
libpt.so.2.10.11:_ZN14PSerialChannel6GetDCDEv
libpt.so.2.10.11:_ZN14PSerialChannel6GetDSREv
libpt.so.2.10.11:_ZN14PSerialChannel6SetDTREb
libpt.so.2.10.11:_ZN14PSerialChannel6SetRTSEb
libpt.so.2.10.11:_ZN14PSerialChannel7GetRingEv
libpt.so.2.10.11:_ZN14PSerialChannel8ClearDTREv
libpt.so.2.10.11:_ZN14PSerialChannel8ClearRTSEv
libpt.so.2.10.11:_ZN14PSerialChannel8SetBreakEb
libpt.so.2.10.11:_ZN14PSerialChannel8SetSpeedEj
libpt.so.2.10.11:_ZN14PSerialChannel9ConstructEv
libpt.so.2.10.11:_ZN14PSerialChannel9SetParityENS_6ParityE
libpt.so.2.10.11:_ZN14PSerialChannelC1ER7PConfig
libpt.so.2.10.11:_ZN14PSerialChannelC1ERK7PStringjhNS_6ParityEhNS_11FlowControlES4_
libpt.so.2.10.11:_ZN14PSerialChannelC1Ev
libpt.so.2.10.11:_ZN14PSerialChannelC2ER7PConfig
libpt.so.2.10.11:_ZN14PSerialChannelC2ERK7PStringjhNS_6ParityEhNS_11FlowControlES4_
libpt.so.2.10.11:_ZN14PSerialChannelC2Ev
libpt.so.2.10.11:_ZN14PSerialChannelD0Ev
libpt.so.2.10.11:_ZN14PSerialChannelD1Ev
libpt.so.2.10.11:_ZN14PSerialChannelD2Ev
libpt.so.2.10.11:_ZN14PSocksProtocol16SendSocksCommandER10PTCPSockethPKcN9PIPSocket7AddressE
libpt.so.2.10.11:_ZN14PSocksProtocol17SetAuthenticationERK7PStringS2_
libpt.so.2.10.11:_ZN14PSocksProtocol18ConnectSocksServerER10PTCPSocket
libpt.so.2.10.11:_ZN14PSocksProtocol20ReceiveSocksResponseER10PTCPSocketRN9PIPSocket7AddressERt
libpt.so.2.10.11:_ZN14PSocksProtocol9SetServerERK7PStringPKc
libpt.so.2.10.11:_ZN14PSocksProtocol9SetServerERK7PStringt
libpt.so.2.10.11:_ZN14PSocksProtocolC1Et
libpt.so.2.10.11:_ZN14PSocksProtocolC2Et
libpt.so.2.10.11:_ZN14PStringOptions10SetIntegerERK15PCaselessStringl
libpt.so.2.10.11:_ZN14PStringOptions7SetRealERK15PCaselessStringdi
libpt.so.2.10.11:_ZN14PSynonymColour7ConvertEPKhPhPi
libpt.so.2.10.11:_ZN14PSynonymColour7ConvertEPKhPhjPi
libpt.so.2.10.11:_ZN14PWAVFileFormat4ReadER8PWAVFilePvRi
libpt.so.2.10.11:_ZN14PWAVFileFormat5WriteER8PWAVFilePKvRi
libpt.so.2.10.11:_ZN14P_Grey_YUV420P7ConvertEPKhPhPi
libpt.so.2.10.11:_ZN14P_Grey_YUV420P7ConvertEPKhPhjPi
libpt.so.2.10.11:_ZN14P_JPEG_YUV420P7ConvertEPKhPhPi
libpt.so.2.10.11:_ZN14P_JPEG_YUV420P7ConvertEPKhPhjPi
libpt.so.2.10.11:_ZN14P_SBGGR8_RGB247ConvertEPKhPhPi
libpt.so.2.10.11:_ZN14P_SBGGR8_RGB247ConvertEPKhPhjPi
libpt.so.2.10.11:_ZN14P_YUY2_YUV420P7ConvertEPKhPhPi
libpt.so.2.10.11:_ZN14P_YUY2_YUV420P7ConvertEPKhPhjPi
libpt.so.2.10.11:_ZN15PCaselessStringC1EPKc
libpt.so.2.10.11:_ZN15PCaselessStringC1ERK7PString
libpt.so.2.10.11:_ZN15PCaselessStringC1EiPKS_
libpt.so.2.10.11:_ZN15PCaselessStringC1Ev
libpt.so.2.10.11:_ZN15PCaselessStringC2EPKc
libpt.so.2.10.11:_ZN15PCaselessStringC2ERK7PString
libpt.so.2.10.11:_ZN15PCaselessStringC2EiPKS_
libpt.so.2.10.11:_ZN15PCaselessStringC2Ev
libpt.so.2.10.11:_ZN15PCaselessStringaSEPKc
libpt.so.2.10.11:_ZN15PCaselessStringaSERK7PString
libpt.so.2.10.11:_ZN15PCaselessStringaSEc
libpt.so.2.10.11:_ZN15PConsoleChannel12SetLocalEchoEb
libpt.so.2.10.11:_ZN15PConsoleChannel4OpenENS_11ConsoleTypeE
libpt.so.2.10.11:_ZN15PConsoleChannel5CloseEv
libpt.so.2.10.11:_ZN15PConsoleChannelC1ENS_11ConsoleTypeE
libpt.so.2.10.11:_ZN15PConsoleChannelC1Ev
libpt.so.2.10.11:_ZN15PConsoleChannelC2ENS_11ConsoleTypeE
libpt.so.2.10.11:_ZN15PConsoleChannelC2Ev
libpt.so.2.10.11:_ZN15PHTTPDirRequestC1ERK4PURLRK9PMIMEInfoRK14PMultiPartListP13PHTTPResourceR11PHTTPServer
libpt.so.2.10.11:_ZN15PHTTPDirRequestC2ERK4PURLRK9PMIMEInfoRK14PMultiPartListP13PHTTPResourceR11PHTTPServer
libpt.so.2.10.11:_ZN15PHTTPFieldArray10GetStringsER7PConfig
libpt.so.2.10.11:_ZN15PHTTPFieldArray10SetStringsER7PConfigRK12PStringArray
libpt.so.2.10.11:_ZN15PHTTPFieldArray12SetAllValuesERK15PStringToString
libpt.so.2.10.11:_ZN15PHTTPFieldArray13AddBlankFieldEv
libpt.so.2.10.11:_ZN15PHTTPFieldArray14LoadFromConfigER7PConfig
libpt.so.2.10.11:_ZN15PHTTPFieldArray7SetSizeEi
libpt.so.2.10.11:_ZN15PHTTPFieldArrayC1EP10PHTTPFieldbi
libpt.so.2.10.11:_ZN15PHTTPFieldArrayC2EP10PHTTPFieldbi
libpt.so.2.10.11:_ZN15PHTTPFieldArrayD0Ev
libpt.so.2.10.11:_ZN15PHTTPFieldArrayD1Ev
libpt.so.2.10.11:_ZN15PHTTPFieldArrayD2Ev
libpt.so.2.10.11:_ZN15PHTTPRadioField8SetValueERK7PString
libpt.so.2.10.11:_ZN15PHTTPRadioFieldC1EPKcRK12PStringArrayS4_iS1_
libpt.so.2.10.11:_ZN15PHTTPRadioFieldC1EPKcRK12PStringArrayiS1_
libpt.so.2.10.11:_ZN15PHTTPRadioFieldC1EPKcS1_RK12PStringArrayS4_iS1_
libpt.so.2.10.11:_ZN15PHTTPRadioFieldC1EPKcS1_RK12PStringArrayiS1_
libpt.so.2.10.11:_ZN15PHTTPRadioFieldC1EPKcS1_iPKS1_S3_iS1_
libpt.so.2.10.11:_ZN15PHTTPRadioFieldC1EPKcS1_iPKS1_iS1_
libpt.so.2.10.11:_ZN15PHTTPRadioFieldC1EPKciPKS1_S3_iS1_
libpt.so.2.10.11:_ZN15PHTTPRadioFieldC1EPKciPKS1_iS1_
libpt.so.2.10.11:_ZN15PHTTPRadioFieldC2EPKcRK12PStringArrayS4_iS1_
libpt.so.2.10.11:_ZN15PHTTPRadioFieldC2EPKcRK12PStringArrayiS1_
libpt.so.2.10.11:_ZN15PHTTPRadioFieldC2EPKcS1_RK12PStringArrayS4_iS1_
libpt.so.2.10.11:_ZN15PHTTPRadioFieldC2EPKcS1_RK12PStringArrayiS1_
libpt.so.2.10.11:_ZN15PHTTPRadioFieldC2EPKcS1_iPKS1_S3_iS1_
libpt.so.2.10.11:_ZN15PHTTPRadioFieldC2EPKcS1_iPKS1_iS1_
libpt.so.2.10.11:_ZN15PHTTPRadioFieldC2EPKciPKS1_S3_iS1_
libpt.so.2.10.11:_ZN15PHTTPRadioFieldC2EPKciPKS1_iS1_
libpt.so.2.10.11:_ZN15PHTTPSimpleAuthC1ERK7PStringS2_S2_
libpt.so.2.10.11:_ZN15PHTTPSimpleAuthC2ERK7PStringS2_S2_
libpt.so.2.10.11:_ZN15PMessageDigest515InternalProcessEPKvi
libpt.so.2.10.11:_ZN15PMessageDigest522InternalCompleteDigestERN14PMessageDigest6ResultE
libpt.so.2.10.11:_ZN15PMessageDigest55StartEv
libpt.so.2.10.11:_ZN15PMessageDigest56EncodeEPKc
libpt.so.2.10.11:_ZN15PMessageDigest56EncodeEPKcRN14PMessageDigest6ResultE
libpt.so.2.10.11:_ZN15PMessageDigest56EncodeEPKcRNS_4CodeE
libpt.so.2.10.11:_ZN15PMessageDigest56EncodeEPKvi
libpt.so.2.10.11:_ZN15PMessageDigest56EncodeEPKviRN14PMessageDigest6ResultE
libpt.so.2.10.11:_ZN15PMessageDigest56EncodeEPKviRNS_4CodeE
libpt.so.2.10.11:_ZN15PMessageDigest56EncodeERK10PBYTEArray
libpt.so.2.10.11:_ZN15PMessageDigest56EncodeERK10PBYTEArrayRN14PMessageDigest6ResultE
libpt.so.2.10.11:_ZN15PMessageDigest56EncodeERK10PBYTEArrayRNS_4CodeE
libpt.so.2.10.11:_ZN15PMessageDigest56EncodeERK7PString
libpt.so.2.10.11:_ZN15PMessageDigest56EncodeERK7PStringRN14PMessageDigest6ResultE
libpt.so.2.10.11:_ZN15PMessageDigest56EncodeERK7PStringRNS_4CodeE
libpt.so.2.10.11:_ZN15PMessageDigest58CompleteERNS_4CodeE
libpt.so.2.10.11:_ZN15PMessageDigest58CompleteEv
libpt.so.2.10.11:_ZN15PMessageDigest59TransformEPKh
libpt.so.2.10.11:_ZN15PMessageDigest5C1Ev
libpt.so.2.10.11:_ZN15PMessageDigest5C2Ev
libpt.so.2.10.11:_ZN15PRFC1155_OpaqueC1EPKc
libpt.so.2.10.11:_ZN15PRFC1155_OpaqueC1ERK10PBYTEArray
libpt.so.2.10.11:_ZN15PRFC1155_OpaqueC1ERK7PString
libpt.so.2.10.11:_ZN15PRFC1155_OpaqueC1EjN11PASN_Object8TagClassE
libpt.so.2.10.11:_ZN15PRFC1155_OpaqueC2EPKc
libpt.so.2.10.11:_ZN15PRFC1155_OpaqueC2ERK10PBYTEArray
libpt.so.2.10.11:_ZN15PRFC1155_OpaqueC2ERK7PString
libpt.so.2.10.11:_ZN15PRFC1155_OpaqueC2EjN11PASN_Object8TagClassE
libpt.so.2.10.11:_ZN15PRFC1155_OpaqueaSEPKc
libpt.so.2.10.11:_ZN15PRFC1155_OpaqueaSERK10PBYTEArray
libpt.so.2.10.11:_ZN15PRFC1155_OpaqueaSERK7PString
libpt.so.2.10.11:_ZN15PReadWriteMutex10StartWriteEv
libpt.so.2.10.11:_ZN15PReadWriteMutex15InternalEndReadEv
libpt.so.2.10.11:_ZN15PReadWriteMutex17InternalStartReadEv
libpt.so.2.10.11:_ZN15PReadWriteMutex7EndNestEv
libpt.so.2.10.11:_ZN15PReadWriteMutex7EndReadEv
libpt.so.2.10.11:_ZN15PReadWriteMutex7GetNestEv
libpt.so.2.10.11:_ZN15PReadWriteMutex8EndWriteEv
libpt.so.2.10.11:_ZN15PReadWriteMutex9StartNestEv
libpt.so.2.10.11:_ZN15PReadWriteMutex9StartReadEv
libpt.so.2.10.11:_ZN15PReadWriteMutexC1Ev
libpt.so.2.10.11:_ZN15PReadWriteMutexC2Ev
libpt.so.2.10.11:_ZN15PReadWriteMutexD0Ev
libpt.so.2.10.11:_ZN15PReadWriteMutexD1Ev
libpt.so.2.10.11:_ZN15PReadWriteMutexD2Ev
libpt.so.2.10.11:_ZN15PSSLCertificate10CreateRootERK7PStringRK14PSSLPrivateKey
libpt.so.2.10.11:_ZN15PSSLCertificate4LoadERK9PFilePath13PSSLFileTypes
libpt.so.2.10.11:_ZN15PSSLCertificate4SaveERK9PFilePathb13PSSLFileTypes
libpt.so.2.10.11:_ZN15PSSLCertificateC1EPKhi
libpt.so.2.10.11:_ZN15PSSLCertificateC1ERK10PBYTEArray
libpt.so.2.10.11:_ZN15PSSLCertificateC1ERK7PString
libpt.so.2.10.11:_ZN15PSSLCertificateC1ERK9PFilePath13PSSLFileTypes
libpt.so.2.10.11:_ZN15PSSLCertificateC1ERKS_
libpt.so.2.10.11:_ZN15PSSLCertificateC1Ev
libpt.so.2.10.11:_ZN15PSSLCertificateC2EPKhi
libpt.so.2.10.11:_ZN15PSSLCertificateC2ERK10PBYTEArray
libpt.so.2.10.11:_ZN15PSSLCertificateC2ERK7PString
libpt.so.2.10.11:_ZN15PSSLCertificateC2ERK9PFilePath13PSSLFileTypes
libpt.so.2.10.11:_ZN15PSSLCertificateC2ERKS_
libpt.so.2.10.11:_ZN15PSSLCertificateC2Ev
libpt.so.2.10.11:_ZN15PSSLCertificateD0Ev
libpt.so.2.10.11:_ZN15PSSLCertificateD1Ev
libpt.so.2.10.11:_ZN15PSSLCertificateD2Ev
libpt.so.2.10.11:_ZN15PSSLCertificateaSERKS_
libpt.so.2.10.11:_ZN15PSSLInitialiser10OnShutdownEv
libpt.so.2.10.11:_ZN15PSSLInitialiser15LockingCallbackEii
libpt.so.2.10.11:_ZN15PSSLInitialiser9OnStartupEv
libpt.so.2.10.11:_ZN15PSafeCollection10SafeRemoveEP11PSafeObject
libpt.so.2.10.11:_ZN15PSafeCollection12SafeRemoveAtEi
libpt.so.2.10.11:_ZN15PSafeCollection16SafeRemoveObjectEP11PSafeObject
libpt.so.2.10.11:_ZN15PSafeCollection18CopySafeCollectionEP11PCollection
libpt.so.2.10.11:_ZN15PSafeCollection18CopySafeDictionaryEP19PAbstractDictionary
libpt.so.2.10.11:_ZN15PSafeCollection20DeleteObjectsTimeoutER6PTimerl
libpt.so.2.10.11:_ZN15PSafeCollection20SetAutoDeleteObjectsEv
libpt.so.2.10.11:_ZN15PSafeCollection24DeleteObjectsToBeRemovedEv
libpt.so.2.10.11:_ZN15PSafeCollection9RemoveAllEb
libpt.so.2.10.11:_ZN15PSafeCollectionC1EP11PCollection
libpt.so.2.10.11:_ZN15PSafeCollectionC2EP11PCollection
libpt.so.2.10.11:_ZN15PSafeCollectionD0Ev
libpt.so.2.10.11:_ZN15PSafeCollectionD1Ev
libpt.so.2.10.11:_ZN15PSafeCollectionD2Ev
libpt.so.2.10.11:_ZN15PServiceProcess10OnContinueEv
libpt.so.2.10.11:_ZN15PServiceProcess10PXOnSignalEi
libpt.so.2.10.11:_ZN15PServiceProcess12InternalMainEPv
libpt.so.2.10.11:_ZN15PServiceProcess15PXOnAsyncSignalEi
libpt.so.2.10.11:_ZN15PServiceProcess17InitialiseServiceEv
libpt.so.2.10.11:_ZN15PServiceProcess20_PXShowSystemWarningEiRK7PString
libpt.so.2.10.11:_ZN15PServiceProcess6OnStopEv
libpt.so.2.10.11:_ZN15PServiceProcess7CurrentEv
libpt.so.2.10.11:_ZN15PServiceProcess7OnPauseEv
libpt.so.2.10.11:_ZN15PServiceProcess9TerminateEv
libpt.so.2.10.11:_ZN15PServiceProcessC1EPKcS1_ttN8PProcess10CodeStatusEt
libpt.so.2.10.11:_ZN15PServiceProcessC2EPKcS1_ttN8PProcess10CodeStatusEt
libpt.so.2.10.11:_ZN15PServiceProcessD0Ev
libpt.so.2.10.11:_ZN15PServiceProcessD1Ev
libpt.so.2.10.11:_ZN15PServiceProcessD2Ev
libpt.so.2.10.11:_ZN15PSocksUDPSocket13SetErrorCodesEN8PChannel6ErrorsEi
libpt.so.2.10.11:_ZN15PSocksUDPSocket14GetPeerAddressERN9PIPSocket7AddressE
libpt.so.2.10.11:_ZN15PSocksUDPSocket14GetPeerAddressERN9PIPSocket7AddressERt
libpt.so.2.10.11:_ZN15PSocksUDPSocket15GetLocalAddressERN9PIPSocket7AddressE
libpt.so.2.10.11:_ZN15PSocksUDPSocket15GetLocalAddressERN9PIPSocket7AddressERt
libpt.so.2.10.11:_ZN15PSocksUDPSocket6ListenEjtN7PSocket11ReusabilityE
libpt.so.2.10.11:_ZN15PSocksUDPSocket7ConnectERK7PString
libpt.so.2.10.11:_ZN15PSocksUDPSocket7ConnectERKN9PIPSocket7AddressE
libpt.so.2.10.11:_ZN15PSocksUDPSocket7ConnectEtRKN9PIPSocket7AddressE
libpt.so.2.10.11:_ZN15PSocksUDPSocket7WriteToEPKviRKN9PIPSocket7AddressEt
libpt.so.2.10.11:_ZN15PSocksUDPSocket8ReadFromEPviRN9PIPSocket7AddressERt
libpt.so.2.10.11:_ZN15PSocksUDPSocketC1ERK7PStringt
libpt.so.2.10.11:_ZN15PSocksUDPSocketC1Et
libpt.so.2.10.11:_ZN15PSocksUDPSocketC2ERK7PStringt
libpt.so.2.10.11:_ZN15PSocksUDPSocketC2Et
libpt.so.2.10.11:_ZN15PSortedListInfoC1Ev
libpt.so.2.10.11:_ZN15PSortedListInfoC2Ev
libpt.so.2.10.11:_ZN15PSortedListInfodlEPv
libpt.so.2.10.11:_ZN15PSortedListInfodlEPvPKci
libpt.so.2.10.11:_ZN15PSortedListInfonwEm
libpt.so.2.10.11:_ZN15PSortedListInfonwEmPKci
libpt.so.2.10.11:_ZN15PStringToString8ReadFromERSi
libpt.so.2.10.11:_ZN15PStringToStringC1EiPKNS_11InitialiserEbb
libpt.so.2.10.11:_ZN15PStringToStringC2EiPKNS_11InitialiserEbb
libpt.so.2.10.11:_ZN15PThreadPoolBase10StopWorkerEPNS_16WorkerThreadBaseE
libpt.so.2.10.11:_ZN15PThreadPoolBase11CheckWorkerEPNS_16WorkerThreadBaseE
libpt.so.2.10.11:_ZN15PThreadPoolBase14AllocateWorkerEv
libpt.so.2.10.11:_ZN15PThreadPoolBase9NewWorkerEv
libpt.so.2.10.11:_ZN15PThreadPoolBaseC1Ejj
libpt.so.2.10.11:_ZN15PThreadPoolBaseC2Ejj
libpt.so.2.10.11:_ZN15PThreadPoolBaseD0Ev
libpt.so.2.10.11:_ZN15PThreadPoolBaseD1Ev
libpt.so.2.10.11:_ZN15PThreadPoolBaseD2Ev
libpt.so.2.10.11:_ZN15PVXMLChannelPCM10WriteFrameEPKvi
libpt.so.2.10.11:_ZN15PVXMLChannelPCM11GetBeepDataER10PBYTEArrayj
libpt.so.2.10.11:_ZN15PVXMLChannelPCM18CreateSilenceFrameEPvi
libpt.so.2.10.11:_ZN15PVXMLChannelPCM9ReadFrameEPvi
libpt.so.2.10.11:_ZN15PVXMLChannelPCMC1Ev
libpt.so.2.10.11:_ZN15PVXMLChannelPCMC2Ev
libpt.so.2.10.11:_ZN15PVXMLRecordableC1Ev
libpt.so.2.10.11:_ZN15PVXMLRecordableC2Ev
libpt.so.2.10.11:_ZN15PVideoFrameInfo11SetFrameSarEjj
libpt.so.2.10.11:_ZN15PVideoFrameInfo12GetSizeNamesEv
libpt.so.2.10.11:_ZN15PVideoFrameInfo12SetFrameRateEj
libpt.so.2.10.11:_ZN15PVideoFrameInfo12SetFrameSizeEjj
libpt.so.2.10.11:_ZN15PVideoFrameInfo15SetColourFormatERK7PString
libpt.so.2.10.11:_ZN15PVideoFrameInfo19CalculateFrameBytesEjjRK7PString
libpt.so.2.10.11:_ZN15PVideoFrameInfo5ParseERK7PString
libpt.so.2.10.11:_ZN15PVideoFrameInfo8AsStringEjj
libpt.so.2.10.11:_ZN15PVideoFrameInfo9ParseSizeERK7PStringRjS3_
libpt.so.2.10.11:_ZN15PVideoFrameInfoC1EjjRK7PStringjNS_10ResizeModeE
libpt.so.2.10.11:_ZN15PVideoFrameInfoC1Ev
libpt.so.2.10.11:_ZN15PVideoFrameInfoC2EjjRK7PStringjNS_10ResizeModeE
libpt.so.2.10.11:_ZN15PVideoFrameInfoC2Ev
libpt.so.2.10.11:_ZN15P_BGR24_YUV420P7ConvertEPKhPhPi
libpt.so.2.10.11:_ZN15P_BGR24_YUV420P7ConvertEPKhPhjPi
libpt.so.2.10.11:_ZN15P_BGR32_YUV420P7ConvertEPKhPhPi
libpt.so.2.10.11:_ZN15P_BGR32_YUV420P7ConvertEPKhPhjPi
libpt.so.2.10.11:_ZN15P_MJPEG_YUV420P7ConvertEPKhPhPi
libpt.so.2.10.11:_ZN15P_MJPEG_YUV420P7ConvertEPKhPhjPi
libpt.so.2.10.11:_ZN15P_RGB24_YUV420P7ConvertEPKhPhPi
libpt.so.2.10.11:_ZN15P_RGB24_YUV420P7ConvertEPKhPhjPi
libpt.so.2.10.11:_ZN15P_RGB32_YUV420P7ConvertEPKhPhPi
libpt.so.2.10.11:_ZN15P_RGB32_YUV420P7ConvertEPKhPhjPi
libpt.so.2.10.11:_ZN15P_YUV420P_BGR247ConvertEPKhPhPi
libpt.so.2.10.11:_ZN15P_YUV420P_BGR247ConvertEPKhPhjPi
libpt.so.2.10.11:_ZN15P_YUV420P_BGR327ConvertEPKhPhPi
libpt.so.2.10.11:_ZN15P_YUV420P_BGR327ConvertEPKhPhjPi
libpt.so.2.10.11:_ZN15P_YUV420P_RGB167ConvertEPKhPhPi
libpt.so.2.10.11:_ZN15P_YUV420P_RGB167ConvertEPKhPhjPi
libpt.so.2.10.11:_ZN15P_YUV420P_RGB247ConvertEPKhPhPi
libpt.so.2.10.11:_ZN15P_YUV420P_RGB247ConvertEPKhPhjPi
libpt.so.2.10.11:_ZN15P_YUV420P_RGB327ConvertEPKhPhPi
libpt.so.2.10.11:_ZN15P_YUV420P_RGB327ConvertEPKhPhjPi
libpt.so.2.10.11:_ZN15P_YUV422_YUV4227ConvertEPKhPhPi
libpt.so.2.10.11:_ZN15P_YUV422_YUV4227ConvertEPKhPhjPi
libpt.so.2.10.11:_ZN16HTTP_PSSLChannel10RawSSLReadEPvRi
libpt.so.2.10.11:_ZN16HTTP_PSSLChannelC1EP25PSecureHTTPServiceProcessP11PSSLContext
libpt.so.2.10.11:_ZN16HTTP_PSSLChannelC2EP25PSecureHTTPServiceProcessP11PSSLContext
libpt.so.2.10.11:_ZN16PASN_Enumeration6DecodeER11PASN_Stream
libpt.so.2.10.11:_ZN16PASN_Enumeration9DecodePERER11PPER_Stream
libpt.so.2.10.11:_ZN16PASN_Enumeration9DecodeXERER11PXER_Stream
libpt.so.2.10.11:_ZN16PASN_EnumerationC1Ej
libpt.so.2.10.11:_ZN16PASN_EnumerationC1EjN11PASN_Object8TagClassEjbPK10PASN_Namesjj
libpt.so.2.10.11:_ZN16PASN_EnumerationC1EjN11PASN_Object8TagClassEjbj
libpt.so.2.10.11:_ZN16PASN_EnumerationC2Ej
libpt.so.2.10.11:_ZN16PASN_EnumerationC2EjN11PASN_Object8TagClassEjbPK10PASN_Namesjj
libpt.so.2.10.11:_ZN16PASN_EnumerationC2EjN11PASN_Object8TagClassEjbj
libpt.so.2.10.11:_ZN16PASN_OctetString13EncodeSubTypeERK11PASN_Object
libpt.so.2.10.11:_ZN16PASN_OctetString19SetConstraintBoundsEN11PASN_Object14ConstraintTypeEij
libpt.so.2.10.11:_ZN16PASN_OctetString6DecodeER11PASN_Stream
libpt.so.2.10.11:_ZN16PASN_OctetString7SetSizeEi
libpt.so.2.10.11:_ZN16PASN_OctetString8SetValueEPKhi
libpt.so.2.10.11:_ZN16PASN_OctetString9DecodePERER11PPER_Stream
libpt.so.2.10.11:_ZN16PASN_OctetStringC1EPKci
libpt.so.2.10.11:_ZN16PASN_OctetStringC1ERKS_
libpt.so.2.10.11:_ZN16PASN_OctetStringC1EjN11PASN_Object8TagClassE
libpt.so.2.10.11:_ZN16PASN_OctetStringC2EPKci
libpt.so.2.10.11:_ZN16PASN_OctetStringC2ERKS_
libpt.so.2.10.11:_ZN16PASN_OctetStringC2EjN11PASN_Object8TagClassE
libpt.so.2.10.11:_ZN16PASN_OctetStringaSEPKc
libpt.so.2.10.11:_ZN16PASN_OctetStringaSERK10PBYTEArray
libpt.so.2.10.11:_ZN16PASN_OctetStringaSERK7PString
libpt.so.2.10.11:_ZN16PASN_OctetStringaSERKS_
libpt.so.2.10.11:_ZN16PColourConverter11CopyYUV420PEjjjjjjPKhjjjjjjPhN15PVideoFrameInfo10ResizeModeE
libpt.so.2.10.11:_ZN16PColourConverter11FillYUV420PEjjiijjPhjjj
libpt.so.2.10.11:_ZN16PColourConverter12SetFrameSizeEjj
libpt.so.2.10.11:_ZN16PColourConverter14ConvertInPlaceEPhPib
libpt.so.2.10.11:_ZN16PColourConverter15GetDstFrameInfoER15PVideoFrameInfo
libpt.so.2.10.11:_ZN16PColourConverter15GetSrcFrameInfoER15PVideoFrameInfo
libpt.so.2.10.11:_ZN16PColourConverter15SetDstFrameInfoERK15PVideoFrameInfo
libpt.so.2.10.11:_ZN16PColourConverter15SetDstFrameSizeEjj
libpt.so.2.10.11:_ZN16PColourConverter15SetDstFrameSizeEjjb
libpt.so.2.10.11:_ZN16PColourConverter15SetSrcFrameInfoERK15PVideoFrameInfo
libpt.so.2.10.11:_ZN16PColourConverter15SetSrcFrameSizeEjj
libpt.so.2.10.11:_ZN16PColourConverter6CreateERK15PVideoFrameInfoS2_
libpt.so.2.10.11:_ZN16PColourConverter6CreateERK7PStringS2_jj
libpt.so.2.10.11:_ZN16PColourConverter8RGBtoYUVEjjjRhS0_S0_
libpt.so.2.10.11:_ZN16PColourConverter8RGBtoYUVEjjjRjS0_S0_
libpt.so.2.10.11:_ZN16PColourConverter9ConstructERK15PVideoFrameInfoS2_
libpt.so.2.10.11:_ZN16PColourConverterC1ERK15PVideoFrameInfoS2_
libpt.so.2.10.11:_ZN16PColourConverterC1ERK7PStringS2_jj
libpt.so.2.10.11:_ZN16PColourConverterC2ERK15PVideoFrameInfoS2_
libpt.so.2.10.11:_ZN16PColourConverterC2ERK7PStringS2_jj
libpt.so.2.10.11:_ZN16PHTTPFileRequestC1ERK4PURLRK9PMIMEInfoRK14PMultiPartListP13PHTTPResourceR11PHTTPServer
libpt.so.2.10.11:_ZN16PHTTPFileRequestC2ERK4PURLRK9PMIMEInfoRK14PMultiPartListP13PHTTPResourceR11PHTTPServer
libpt.so.2.10.11:_ZN16PHTTPSelectField8SetValueERK7PString
libpt.so.2.10.11:_ZN16PHTTPSelectFieldC1EPKcRK12PStringArrayiS1_
libpt.so.2.10.11:_ZN16PHTTPSelectFieldC1EPKcS1_RK12PStringArrayiS1_
libpt.so.2.10.11:_ZN16PHTTPSelectFieldC1EPKcS1_iPKS1_iS1_
libpt.so.2.10.11:_ZN16PHTTPSelectFieldC1EPKciPKS1_iS1_
libpt.so.2.10.11:_ZN16PHTTPSelectFieldC2EPKcRK12PStringArrayiS1_
libpt.so.2.10.11:_ZN16PHTTPSelectFieldC2EPKcS1_RK12PStringArrayiS1_
libpt.so.2.10.11:_ZN16PHTTPSelectFieldC2EPKcS1_iPKS1_iS1_
libpt.so.2.10.11:_ZN16PHTTPSelectFieldC2EPKciPKS1_iS1_
libpt.so.2.10.11:_ZN16PHTTPStringField8SetValueERK7PString
libpt.so.2.10.11:_ZN16PHTTPStringFieldC1EPKcS1_iS1_S1_
libpt.so.2.10.11:_ZN16PHTTPStringFieldC1EPKciS1_S1_
libpt.so.2.10.11:_ZN16PHTTPStringFieldC2EPKcS1_iS1_S1_
libpt.so.2.10.11:_ZN16PHTTPStringFieldC2EPKciS1_S1_
libpt.so.2.10.11:_ZN16PIndirectChannel12SetLocalEchoEb
libpt.so.2.10.11:_ZN16PIndirectChannel14SetReadChannelEP8PChannelbb
libpt.so.2.10.11:_ZN16PIndirectChannel15SetWriteChannelEP8PChannelbb
libpt.so.2.10.11:_ZN16PIndirectChannel4OpenEP8PChannelS1_bb
libpt.so.2.10.11:_ZN16PIndirectChannel4OpenEP8PChannelb
libpt.so.2.10.11:_ZN16PIndirectChannel4OpenER8PChannel
libpt.so.2.10.11:_ZN16PIndirectChannel4ReadEPvi
libpt.so.2.10.11:_ZN16PIndirectChannel5CloseEv
libpt.so.2.10.11:_ZN16PIndirectChannel5WriteEPKvi
libpt.so.2.10.11:_ZN16PIndirectChannel6OnOpenEv
libpt.so.2.10.11:_ZN16PIndirectChannel8ShutdownEN8PChannel13ShutdownValueE
libpt.so.2.10.11:_ZN16PIndirectChannelC1Ev
libpt.so.2.10.11:_ZN16PIndirectChannelC2Ev
libpt.so.2.10.11:_ZN16PIndirectChannelD0Ev
libpt.so.2.10.11:_ZN16PIndirectChannelD1Ev
libpt.so.2.10.11:_ZN16PIndirectChannelD2Ev
libpt.so.2.10.11:_ZN16POrdinalToString8ReadFromERSi
libpt.so.2.10.11:_ZN16POrdinalToStringC1EiPKNS_11InitialiserE
libpt.so.2.10.11:_ZN16POrdinalToStringC2EiPKNS_11InitialiserE
libpt.so.2.10.11:_ZN16PRFC1155_CounterC1EjN11PASN_Object8TagClassE
libpt.so.2.10.11:_ZN16PRFC1155_CounterC2EjN11PASN_Object8TagClassE
libpt.so.2.10.11:_ZN16PRFC1155_CounteraSEi
libpt.so.2.10.11:_ZN16PRFC1155_CounteraSEj
libpt.so.2.10.11:_ZN16PServiceHTTPFile12OnLoadedTextER12PHTTPRequestR7PString
libpt.so.2.10.11:_ZN16PServiceHTTPFile17GetExpirationDateER5PTime
libpt.so.2.10.11:_ZN16PStringToOrdinal8ReadFromERSi
libpt.so.2.10.11:_ZN16PStringToOrdinalC1EiPKNS_11InitialiserEb
libpt.so.2.10.11:_ZN16PStringToOrdinalC2EiPKNS_11InitialiserEb
libpt.so.2.10.11:_ZN16PSystemLogTarget14OutputToStreamERSoN10PSystemLog5LevelEPKc
libpt.so.2.10.11:_ZN16PSystemLogTargetC1ERKS_
libpt.so.2.10.11:_ZN16PSystemLogTargetC1Ev
libpt.so.2.10.11:_ZN16PSystemLogTargetC2ERKS_
libpt.so.2.10.11:_ZN16PSystemLogTargetC2Ev
libpt.so.2.10.11:_ZN16PSystemLogTargetaSERKS_
libpt.so.2.10.11:_ZN16PSystemLogToFile6OutputEN10PSystemLog5LevelEPKc
libpt.so.2.10.11:_ZN16PSystemLogToFileC1ERK7PString
libpt.so.2.10.11:_ZN16PSystemLogToFileC2ERK7PString
libpt.so.2.10.11:_ZN16PVXMLChannelG72910WriteFrameEPKvi
libpt.so.2.10.11:_ZN16PVXMLChannelG72918CreateSilenceFrameEPvi
libpt.so.2.10.11:_ZN16PVXMLChannelG7299ReadFrameEPvi
libpt.so.2.10.11:_ZN16PVXMLChannelG729C1Ev
libpt.so.2.10.11:_ZN16PVXMLChannelG729C2Ev
libpt.so.2.10.11:_ZN16PVXMLMenuGrammar11OnUserInputEc
libpt.so.2.10.11:_ZN16PVXMLMenuGrammar7ProcessEv
libpt.so.2.10.11:_ZN16PVXMLMenuGrammarC1ER12PVXMLSessionR11PXMLElement
libpt.so.2.10.11:_ZN16PVXMLMenuGrammarC2ER12PVXMLSessionR11PXMLElement
libpt.so.2.10.11:_ZN16PVXMLPlayableURL4OpenER12PVXMLChannelRK7PStringiib
libpt.so.2.10.11:_ZN16PVXMLPlayableURL7OnStartEv
libpt.so.2.10.11:_ZN16PXMLRPCArrayBase4CopyERK19PXMLRPCVariableBase
libpt.so.2.10.11:_ZN16PXMLRPCArrayBase7SetSizeEi
libpt.so.2.10.11:_ZN16PXMLRPCArrayBaseC1ER10PContainerPKcS3_
libpt.so.2.10.11:_ZN16PXMLRPCArrayBaseC2ER10PContainerPKcS3_
libpt.so.2.10.11:_ZN16PXMLStreamParser10EndElementEPKc
libpt.so.2.10.11:_ZN16PXMLStreamParser4ReadEP8PChannel
libpt.so.2.10.11:_ZN16PXMLStreamParserC1Ev
libpt.so.2.10.11:_ZN16PXMLStreamParserC2Ev
libpt.so.2.10.11:_ZN16P_SBGGR8_YUV420P7ConvertEPKhPhPi
libpt.so.2.10.11:_ZN16P_SBGGR8_YUV420P7ConvertEPKhPhjPi
libpt.so.2.10.11:_ZN16P_UYV444_YUV420P7ConvertEPKhPhPi
libpt.so.2.10.11:_ZN16P_UYV444_YUV420P7ConvertEPKhPhjPi
libpt.so.2.10.11:_ZN16P_YUV420P_RGB5657ConvertEPKhPhPi
libpt.so.2.10.11:_ZN16P_YUV420P_RGB5657ConvertEPKhPhjPi
libpt.so.2.10.11:_ZN16P_YUV422_YUV420P7ConvertEPKhPhPi
libpt.so.2.10.11:_ZN16P_YUV422_YUV420P7ConvertEPKhPhjPi
libpt.so.2.10.11:_ZN17PGloballyUniqueID8ReadFromERSi
libpt.so.2.10.11:_ZN17PGloballyUniqueIDC1EPKc
libpt.so.2.10.11:_ZN17PGloballyUniqueIDC1ERK16PASN_OctetString
libpt.so.2.10.11:_ZN17PGloballyUniqueIDC1ERK7PString
libpt.so.2.10.11:_ZN17PGloballyUniqueIDC1Ev
libpt.so.2.10.11:_ZN17PGloballyUniqueIDC2EPKc
libpt.so.2.10.11:_ZN17PGloballyUniqueIDC2ERK16PASN_OctetString
libpt.so.2.10.11:_ZN17PGloballyUniqueIDC2ERK7PString
libpt.so.2.10.11:_ZN17PGloballyUniqueIDC2Ev
libpt.so.2.10.11:_ZN17PHTTPBooleanField14LoadFromConfigER7PConfig
libpt.so.2.10.11:_ZN17PHTTPBooleanField8SetValueERK7PString
libpt.so.2.10.11:_ZN17PHTTPBooleanFieldC1EPKcS1_bS1_
libpt.so.2.10.11:_ZN17PHTTPBooleanFieldC1EPKcbS1_
libpt.so.2.10.11:_ZN17PHTTPBooleanFieldC2EPKcS1_bS1_
libpt.so.2.10.11:_ZN17PHTTPBooleanFieldC2EPKcbS1_
libpt.so.2.10.11:_ZN17PHTTPIntegerField14LoadFromConfigER7PConfig
libpt.so.2.10.11:_ZN17PHTTPIntegerField8SetValueERK7PString
libpt.so.2.10.11:_ZN17PHTTPIntegerFieldC1EPKcS1_iiiS1_S1_
libpt.so.2.10.11:_ZN17PHTTPIntegerFieldC1EPKciiiS1_S1_
libpt.so.2.10.11:_ZN17PHTTPIntegerFieldC2EPKcS1_iiiS1_S1_
libpt.so.2.10.11:_ZN17PHTTPIntegerFieldC2EPKciiiS1_S1_
libpt.so.2.10.11:_ZN17PHashTableElementdlEPv
libpt.so.2.10.11:_ZN17PHashTableElementdlEPvPKci
libpt.so.2.10.11:_ZN17PHashTableElementnwEm
libpt.so.2.10.11:_ZN17PHashTableElementnwEmPKci
libpt.so.2.10.11:_ZN17PIPDatagramSocket7WriteToEPKviRKN9PIPSocket7AddressEt
libpt.so.2.10.11:_ZN17PIPDatagramSocket8ReadFromEPviRN9PIPSocket7AddressERt
libpt.so.2.10.11:_ZN17PIPDatagramSocketC1Ev
libpt.so.2.10.11:_ZN17PIPDatagramSocketC2Ev
libpt.so.2.10.11:_ZN17PInterfaceMonitor10OnShutdownEv
libpt.so.2.10.11:_ZN17PInterfaceMonitor12RemoveClientEP23PInterfaceMonitorClient
libpt.so.2.10.11:_ZN17PInterfaceMonitor13GetInterfacesEbRKN9PIPSocket7AddressE
libpt.so.2.10.11:_ZN17PInterfaceMonitor16UpdateThreadMainEv
libpt.so.2.10.11:_ZN17PInterfaceMonitor17OnRemoveNatMethodEPK10PNatMethod
libpt.so.2.10.11:_ZN17PInterfaceMonitor18SetInterfaceFilterEP16PInterfaceFilter
libpt.so.2.10.11:_ZN17PInterfaceMonitor18SetRefreshIntervalEj
libpt.so.2.10.11:_ZN17PInterfaceMonitor19IsMatchingInterfaceERK7PStringRKN9PIPSocket14InterfaceEntryE
libpt.so.2.10.11:_ZN17PInterfaceMonitor19OnInterfacesChangedERK6PArrayIN9PIPSocket14InterfaceEntryEES5_
libpt.so.2.10.11:_ZN17PInterfaceMonitor19SetRunMonitorThreadEb
libpt.so.2.10.11:_ZN17PInterfaceMonitor20RefreshInterfaceListEv
libpt.so.2.10.11:_ZN17PInterfaceMonitor28IsValidBindingForDestinationERKN9PIPSocket7AddressES3_
libpt.so.2.10.11:_ZN17PInterfaceMonitor4StopEv
libpt.so.2.10.11:_ZN17PInterfaceMonitor5StartEv
libpt.so.2.10.11:_ZN17PInterfaceMonitor9AddClientEP23PInterfaceMonitorClient
libpt.so.2.10.11:_ZN17PInterfaceMonitorC1Ejb
libpt.so.2.10.11:_ZN17PInterfaceMonitorC2Ejb
libpt.so.2.10.11:_ZN17PInterfaceMonitorD0Ev
libpt.so.2.10.11:_ZN17PInterfaceMonitorD1Ev
libpt.so.2.10.11:_ZN17PInterfaceMonitorD2Ev
libpt.so.2.10.11:_ZN17PInternetProtocol11ReadCommandERiR7PString
libpt.so.2.10.11:_ZN17PInternetProtocol12AttachSocketEP9PIPSocket
libpt.so.2.10.11:_ZN17PInternetProtocol12ReadResponseERiR7PString
libpt.so.2.10.11:_ZN17PInternetProtocol12ReadResponseEv
libpt.so.2.10.11:_ZN17PInternetProtocol12WriteCommandEi
libpt.so.2.10.11:_ZN17PInternetProtocol12WriteCommandEiRK7PString
libpt.so.2.10.11:_ZN17PInternetProtocol13ParseResponseERK7PString
libpt.so.2.10.11:_ZN17PInternetProtocol13WriteResponseERK7PStringS2_
libpt.so.2.10.11:_ZN17PInternetProtocol13WriteResponseEjRK7PString
libpt.so.2.10.11:_ZN17PInternetProtocol14ExecuteCommandEi
libpt.so.2.10.11:_ZN17PInternetProtocol14ExecuteCommandEiRK7PString
libpt.so.2.10.11:_ZN17PInternetProtocol18SetReadLineTimeoutERK13PTimeInterval
libpt.so.2.10.11:_ZN17PInternetProtocol4ReadEPvi
libpt.so.2.10.11:_ZN17PInternetProtocol5WriteEPKvi
libpt.so.2.10.11:_ZN17PInternetProtocol6AcceptER7PSocket
libpt.so.2.10.11:_ZN17PInternetProtocol6UnReadEPKvi
libpt.so.2.10.11:_ZN17PInternetProtocol6UnReadERK7PString
libpt.so.2.10.11:_ZN17PInternetProtocol6UnReadEi
libpt.so.2.10.11:_ZN17PInternetProtocol7ConnectERK7PStringS2_
libpt.so.2.10.11:_ZN17PInternetProtocol7ConnectERK7PStringt
libpt.so.2.10.11:_ZN17PInternetProtocol8ReadLineER7PStringb
libpt.so.2.10.11:_ZN17PInternetProtocol9WriteLineERK7PString
libpt.so.2.10.11:_ZN17PInternetProtocolC1EPKciPKS1_
libpt.so.2.10.11:_ZN17PInternetProtocolC2EPKciPKS1_
libpt.so.2.10.11:_ZN17PMonitoredSockets12CreateSocketERNS_10SocketInfoERKN9PIPSocket7AddressE
libpt.so.2.10.11:_ZN17PMonitoredSockets13DestroySocketERNS_10SocketInfoE
libpt.so.2.10.11:_ZN17PMonitoredSockets13WriteToSocketEPKviRKN9PIPSocket7AddressEtRKNS_10SocketInfoERi
libpt.so.2.10.11:_ZN17PMonitoredSockets14ReadFromSocketERN7PSocket10SelectListERP10PUDPSocketPviRN9PIPSocket7AddressERtRiRK13PTimeInterval
libpt.so.2.10.11:_ZN17PMonitoredSockets14ReadFromSocketERNS_10SocketInfoEPviRN9PIPSocket7AddressERtRiRK13PTimeInterval
libpt.so.2.10.11:_ZN17PMonitoredSockets17OnRemoveNatMethodEPK10PNatMethod
libpt.so.2.10.11:_ZN17PMonitoredSockets6CreateERK7PStringbP10PNatMethod
libpt.so.2.10.11:_ZN17PMonitoredSocketsC1EbP10PNatMethod
libpt.so.2.10.11:_ZN17PMonitoredSocketsC2EbP10PNatMethod
libpt.so.2.10.11:_ZN17PRemoteConnection16GetConfigurationERK7PStringRNS_13ConfigurationE
libpt.so.2.10.11:_ZN17PRemoteConnection16GetConfigurationERNS_13ConfigurationE
libpt.so.2.10.11:_ZN17PRemoteConnection16SetConfigurationERK7PStringRKNS_13ConfigurationEb
libpt.so.2.10.11:_ZN17PRemoteConnection16SetConfigurationERKNS_13ConfigurationEb
libpt.so.2.10.11:_ZN17PRemoteConnection17GetAvailableNamesEv
libpt.so.2.10.11:_ZN17PRemoteConnection19RemoveConfigurationERK7PString
libpt.so.2.10.11:_ZN17PRemoteConnection4OpenERK7PStringS2_S2_b
libpt.so.2.10.11:_ZN17PRemoteConnection4OpenERK7PStringb
libpt.so.2.10.11:_ZN17PRemoteConnection4OpenEb
libpt.so.2.10.11:_ZN17PRemoteConnection5CloseEv
libpt.so.2.10.11:_ZN17PRemoteConnection9ConstructEv
libpt.so.2.10.11:_ZN17PRemoteConnectionC1ERK7PString
libpt.so.2.10.11:_ZN17PRemoteConnectionC1Ev
libpt.so.2.10.11:_ZN17PRemoteConnectionC2ERK7PString
libpt.so.2.10.11:_ZN17PRemoteConnectionC2Ev
libpt.so.2.10.11:_ZN17PRemoteConnectionD0Ev
libpt.so.2.10.11:_ZN17PRemoteConnectionD1Ev
libpt.so.2.10.11:_ZN17PRemoteConnectionD2Ev
libpt.so.2.10.11:_ZN17PSNMP_VarBindListC1EjN11PASN_Object8TagClassE
libpt.so.2.10.11:_ZN17PSNMP_VarBindListC2EjN11PASN_Object8TagClassE
libpt.so.2.10.11:_ZN17PSSLDiffieHellman4LoadERK9PFilePath13PSSLFileTypes
libpt.so.2.10.11:_ZN17PSSLDiffieHellmanC1EPKhiS1_i
libpt.so.2.10.11:_ZN17PSSLDiffieHellmanC1ERK9PFilePath13PSSLFileTypes
libpt.so.2.10.11:_ZN17PSSLDiffieHellmanC1ERKS_
libpt.so.2.10.11:_ZN17PSSLDiffieHellmanC1Ev
libpt.so.2.10.11:_ZN17PSSLDiffieHellmanC2EPKhiS1_i
libpt.so.2.10.11:_ZN17PSSLDiffieHellmanC2ERK9PFilePath13PSSLFileTypes
libpt.so.2.10.11:_ZN17PSSLDiffieHellmanC2ERKS_
libpt.so.2.10.11:_ZN17PSSLDiffieHellmanC2Ev
libpt.so.2.10.11:_ZN17PSSLDiffieHellmanD0Ev
libpt.so.2.10.11:_ZN17PSSLDiffieHellmanD1Ev
libpt.so.2.10.11:_ZN17PSSLDiffieHellmanD2Ev
libpt.so.2.10.11:_ZN17PSSLDiffieHellmanaSERKS_
libpt.so.2.10.11:_ZN17PSafeLockReadOnly4LockEv
libpt.so.2.10.11:_ZN17PSafeLockReadOnly6UnlockEv
libpt.so.2.10.11:_ZN17PSafeLockReadOnlyC1ERK11PSafeObject
libpt.so.2.10.11:_ZN17PSafeLockReadOnlyC2ERK11PSafeObject
libpt.so.2.10.11:_ZN17PSafeLockReadOnlyD1Ev
libpt.so.2.10.11:_ZN17PSafeLockReadOnlyD2Ev
libpt.so.2.10.11:_ZN17PSortedStringList12AppendStringERK7PString
libpt.so.2.10.11:_ZN17PSortedStringList8ReadFromERSi
libpt.so.2.10.11:_ZN17PSortedStringListC1ERK11PStringList
libpt.so.2.10.11:_ZN17PSortedStringListC1ERK12PStringArray
libpt.so.2.10.11:_ZN17PSortedStringListC1ERK7PString
libpt.so.2.10.11:_ZN17PSortedStringListC1EiPKPKcb
libpt.so.2.10.11:_ZN17PSortedStringListC2ERK11PStringList
libpt.so.2.10.11:_ZN17PSortedStringListC2ERK12PStringArray
libpt.so.2.10.11:_ZN17PSortedStringListC2ERK7PString
libpt.so.2.10.11:_ZN17PSortedStringListC2EiPKPKcb
libpt.so.2.10.11:_ZN17PVXMLChannelG723110WriteFrameEPKvi
libpt.so.2.10.11:_ZN17PVXMLChannelG723118CreateSilenceFrameEPvi
libpt.so.2.10.11:_ZN17PVXMLChannelG72319ReadFrameEPvi
libpt.so.2.10.11:_ZN17PVXMLChannelG7231C1Ev
libpt.so.2.10.11:_ZN17PVXMLChannelG7231C2Ev
libpt.so.2.10.11:_ZN17PVXMLPlayableData4OpenER12PVXMLChannelRK7PStringiib
libpt.so.2.10.11:_ZN17PVXMLPlayableData7OnStartEv
libpt.so.2.10.11:_ZN17PVXMLPlayableData7SetDataERK10PBYTEArray
libpt.so.2.10.11:_ZN17PVXMLPlayableData8OnRepeatEv
libpt.so.2.10.11:_ZN17PVXMLPlayableFile4OpenER12PVXMLChannelRK7PStringiib
libpt.so.2.10.11:_ZN17PVXMLPlayableFile6OnStopEv
libpt.so.2.10.11:_ZN17PVXMLPlayableFile7OnStartEv
libpt.so.2.10.11:_ZN17PVXMLPlayableFile8OnRepeatEv
libpt.so.2.10.11:_ZN17PVXMLPlayableStop7OnStartEv
libpt.so.2.10.11:_ZN17PVXMLPlayableTone4OpenER12PVXMLChannelRK7PStringiib
libpt.so.2.10.11:_ZN17PVideoControlInfo8AsStringERKNS_16InputControlTypeE
libpt.so.2.10.11:_ZN17PVideoInputDevice11FlowControlEPKv
libpt.so.2.10.11:_ZN17PVideoInputDevice12CreateDeviceERK7PStringP14PPluginManager
libpt.so.2.10.11:_ZN17PVideoInputDevice12GetFrameDataEPhPiRj
libpt.so.2.10.11:_ZN17PVideoInputDevice14GetDriverNamesEP14PPluginManager
libpt.so.2.10.11:_ZN17PVideoInputDevice14SetCaptureModeEj
libpt.so.2.10.11:_ZN17PVideoInputDevice18CreateDeviceByNameERK7PStringS2_P14PPluginManager
libpt.so.2.10.11:_ZN17PVideoInputDevice18CreateOpenedDeviceERK7PStringS2_bP14PPluginManager
libpt.so.2.10.11:_ZN17PVideoInputDevice18CreateOpenedDeviceERKN12PVideoDevice8OpenArgsEb
libpt.so.2.10.11:_ZN17PVideoInputDevice19GetFrameDataNoDelayEPhPiRj
libpt.so.2.10.11:_ZN17PVideoInputDevice19SetNearestFrameSizeEjj
libpt.so.2.10.11:_ZN17PVideoInputDevice21GetDeviceCapabilitiesERK7PStringPNS_12CapabilitiesEP14PPluginManager
libpt.so.2.10.11:_ZN17PVideoInputDevice21GetDeviceCapabilitiesERK7PStringS2_PNS_12CapabilitiesEP14PPluginManager
libpt.so.2.10.11:_ZN17PVideoInputDevice21GetDriversDeviceNamesERK7PStringP14PPluginManager
libpt.so.2.10.11:_ZN17PVideoInputDevice21GetVideoInputControlsEv
libpt.so.2.10.11:_ZN17PVideoInputDevice8GetFrameER10PBYTEArray
libpt.so.2.10.11:_ZN17PWAVFileFormatPCM12CreateHeaderERN4PWAV8FMTChunkER10PBYTEArray
libpt.so.2.10.11:_ZN17PWAVFileFormatPCM12UpdateHeaderERN4PWAV8FMTChunkER10PBYTEArray
libpt.so.2.10.11:_ZN17PWAVFileFormatPCM4ReadER8PWAVFilePvRi
libpt.so.2.10.11:_ZN17PWAVFileFormatPCM5WriteER8PWAVFilePKvRi
libpt.so.2.10.11:_ZN17PXMLRPCStructBase11AddVariableEP19PXMLRPCVariableBase
libpt.so.2.10.11:_ZN17PXMLRPCStructBase14EndConstructorEv
libpt.so.2.10.11:_ZN17PXMLRPCStructBaseC1Ev
libpt.so.2.10.11:_ZN17PXMLRPCStructBaseC2Ev
libpt.so.2.10.11:_ZN17PXMLRPCStructBaseaSERKS_
libpt.so.2.10.11:_ZN17P_UYVY422_UYVY4227ConvertEPKhPhPi
libpt.so.2.10.11:_ZN17P_UYVY422_UYVY4227ConvertEPKhPhjPi
libpt.so.2.10.11:_ZN17P_UYVY422_YUV420P7ConvertEPKhPhPi
libpt.so.2.10.11:_ZN17P_UYVY422_YUV420P7ConvertEPKhPhjPi
libpt.so.2.10.11:_ZN17P_YUV411P_YUV420P7ConvertEPKhPhPi
libpt.so.2.10.11:_ZN17P_YUV411P_YUV420P7ConvertEPKhPhjPi
libpt.so.2.10.11:_ZN17P_YUV420P_YUV411P7ConvertEPKhPhPi
libpt.so.2.10.11:_ZN17P_YUV420P_YUV411P7ConvertEPKhPhjPi
libpt.so.2.10.11:_ZN17P_YUV420P_YUV420P7ConvertEPKhPhPi
libpt.so.2.10.11:_ZN17P_YUV420P_YUV420P7ConvertEPKhPhjPi
libpt.so.2.10.11:_ZN18PASN_GeneralStringC1EPKc
libpt.so.2.10.11:_ZN18PASN_GeneralStringC1EjN11PASN_Object8TagClassE
libpt.so.2.10.11:_ZN18PASN_GeneralStringC2EPKc
libpt.so.2.10.11:_ZN18PASN_GeneralStringC2EjN11PASN_Object8TagClassE
libpt.so.2.10.11:_ZN18PASN_GeneralStringaSEPKc
libpt.so.2.10.11:_ZN18PASN_GeneralStringaSERK7PString
libpt.so.2.10.11:_ZN18PASN_NumericStringC1EPKc
libpt.so.2.10.11:_ZN18PASN_NumericStringC1EjN11PASN_Object8TagClassE
libpt.so.2.10.11:_ZN18PASN_NumericStringC2EPKc
libpt.so.2.10.11:_ZN18PASN_NumericStringC2EjN11PASN_Object8TagClassE
libpt.so.2.10.11:_ZN18PASN_NumericStringaSEPKc
libpt.so.2.10.11:_ZN18PASN_NumericStringaSERK7PString
libpt.so.2.10.11:_ZN18PASN_UniversalTimeaSERK5PTime
libpt.so.2.10.11:_ZN18PASN_VisibleStringC1EPKc
libpt.so.2.10.11:_ZN18PASN_VisibleStringC1EjN11PASN_Object8TagClassE
libpt.so.2.10.11:_ZN18PASN_VisibleStringC2EPKc
libpt.so.2.10.11:_ZN18PASN_VisibleStringC2EjN11PASN_Object8TagClassE
libpt.so.2.10.11:_ZN18PASN_VisibleStringaSEPKc
libpt.so.2.10.11:_ZN18PASN_VisibleStringaSERK7PString
libpt.so.2.10.11:_ZN18PHTTPMultiSimpAuth7AddUserERK7PStringS2_
libpt.so.2.10.11:_ZN18PHTTPMultiSimpAuthC1ERK7PString
libpt.so.2.10.11:_ZN18PHTTPMultiSimpAuthC1ERK7PStringRK15PStringToString
libpt.so.2.10.11:_ZN18PHTTPMultiSimpAuthC2ERK7PString
libpt.so.2.10.11:_ZN18PHTTPMultiSimpAuthC2ERK7PStringRK15PStringToString
libpt.so.2.10.11:_ZN18PHTTPPasswordField7DecryptERK7PString
libpt.so.2.10.11:_ZN18PHTTPPasswordField8SetValueERK7PString
libpt.so.2.10.11:_ZN18PHTTPPasswordFieldC1EPKcS1_iS1_S1_
libpt.so.2.10.11:_ZN18PHTTPPasswordFieldC1EPKciS1_S1_
libpt.so.2.10.11:_ZN18PHTTPPasswordFieldC2EPKcS1_iS1_S1_
libpt.so.2.10.11:_ZN18PHTTPPasswordFieldC2EPKciS1_S1_
libpt.so.2.10.11:_ZN18PHTTPServiceThread4MainEv
libpt.so.2.10.11:_ZN18PHTTPServiceThread5CloseEv
libpt.so.2.10.11:_ZN18PHTTPServiceThreadC1EiR19PHTTPServiceProcess
libpt.so.2.10.11:_ZN18PHTTPServiceThreadC2EiR19PHTTPServiceProcess
libpt.so.2.10.11:_ZN18PHTTPServiceThreadD0Ev
libpt.so.2.10.11:_ZN18PHTTPServiceThreadD1Ev
libpt.so.2.10.11:_ZN18PHTTPServiceThreadD2Ev
libpt.so.2.10.11:_ZN18PMessageDigestSHA115InternalProcessEPKvi
libpt.so.2.10.11:_ZN18PMessageDigestSHA122InternalCompleteDigestERN14PMessageDigest6ResultE
libpt.so.2.10.11:_ZN18PMessageDigestSHA15StartEv
libpt.so.2.10.11:_ZN18PMessageDigestSHA16EncodeEPKc
libpt.so.2.10.11:_ZN18PMessageDigestSHA16EncodeEPKcRN14PMessageDigest6ResultE
libpt.so.2.10.11:_ZN18PMessageDigestSHA16EncodeEPKvi
libpt.so.2.10.11:_ZN18PMessageDigestSHA16EncodeEPKviRN14PMessageDigest6ResultE
libpt.so.2.10.11:_ZN18PMessageDigestSHA16EncodeERK10PBYTEArray
libpt.so.2.10.11:_ZN18PMessageDigestSHA16EncodeERK10PBYTEArrayRN14PMessageDigest6ResultE
libpt.so.2.10.11:_ZN18PMessageDigestSHA16EncodeERK7PString
libpt.so.2.10.11:_ZN18PMessageDigestSHA16EncodeERK7PStringRN14PMessageDigest6ResultE
libpt.so.2.10.11:_ZN18PMessageDigestSHA1C1Ev
libpt.so.2.10.11:_ZN18PMessageDigestSHA1C2Ev
libpt.so.2.10.11:_ZN18PMessageDigestSHA1D0Ev
libpt.so.2.10.11:_ZN18PMessageDigestSHA1D1Ev
libpt.so.2.10.11:_ZN18PMessageDigestSHA1D2Ev
libpt.so.2.10.11:_ZN18PRFC1155_IpAddressC1EPKc
libpt.so.2.10.11:_ZN18PRFC1155_IpAddressC1ERK10PBYTEArray
libpt.so.2.10.11:_ZN18PRFC1155_IpAddressC1ERK7PString
libpt.so.2.10.11:_ZN18PRFC1155_IpAddressC1EjN11PASN_Object8TagClassE
libpt.so.2.10.11:_ZN18PRFC1155_IpAddressC2EPKc
libpt.so.2.10.11:_ZN18PRFC1155_IpAddressC2ERK10PBYTEArray
libpt.so.2.10.11:_ZN18PRFC1155_IpAddressC2ERK7PString
libpt.so.2.10.11:_ZN18PRFC1155_IpAddressC2EjN11PASN_Object8TagClassE
libpt.so.2.10.11:_ZN18PRFC1155_IpAddressaSEPKc
libpt.so.2.10.11:_ZN18PRFC1155_IpAddressaSERK10PBYTEArray
libpt.so.2.10.11:_ZN18PRFC1155_IpAddressaSERK7PString
libpt.so.2.10.11:_ZN18PRFC1155_TimeTicksC1EjN11PASN_Object8TagClassE
libpt.so.2.10.11:_ZN18PRFC1155_TimeTicksC2EjN11PASN_Object8TagClassE
libpt.so.2.10.11:_ZN18PRFC1155_TimeTicksaSEi
libpt.so.2.10.11:_ZN18PRFC1155_TimeTicksaSEj
libpt.so.2.10.11:_ZN18PReadWaitAndSignalC1ERK15PReadWriteMutexb
libpt.so.2.10.11:_ZN18PReadWaitAndSignalC2ERK15PReadWriteMutexb
libpt.so.2.10.11:_ZN18PReadWaitAndSignalD1Ev
libpt.so.2.10.11:_ZN18PReadWaitAndSignalD2Ev
libpt.so.2.10.11:_ZN18PRegularExpression12EscapeStringERK7PString
libpt.so.2.10.11:_ZN18PRegularExpression7CompileEPKci
libpt.so.2.10.11:_ZN18PRegularExpression7CompileERK7PStringi
libpt.so.2.10.11:_ZN18PRegularExpressionC1EPKci
libpt.so.2.10.11:_ZN18PRegularExpressionC1ERK7PStringi
libpt.so.2.10.11:_ZN18PRegularExpressionC1ERKS_
libpt.so.2.10.11:_ZN18PRegularExpressionC1Ev
libpt.so.2.10.11:_ZN18PRegularExpressionC2EPKci
libpt.so.2.10.11:_ZN18PRegularExpressionC2ERK7PStringi
libpt.so.2.10.11:_ZN18PRegularExpressionC2ERKS_
libpt.so.2.10.11:_ZN18PRegularExpressionC2Ev
libpt.so.2.10.11:_ZN18PRegularExpressionD0Ev
libpt.so.2.10.11:_ZN18PRegularExpressionD1Ev
libpt.so.2.10.11:_ZN18PRegularExpressionD2Ev
libpt.so.2.10.11:_ZN18PRegularExpressionaSERKS_
libpt.so.2.10.11:_ZN18PSafeLockReadWrite4LockEv
libpt.so.2.10.11:_ZN18PSafeLockReadWrite6UnlockEv
libpt.so.2.10.11:_ZN18PSafeLockReadWriteC1ERK11PSafeObject
libpt.so.2.10.11:_ZN18PSafeLockReadWriteC2ERK11PSafeObject
libpt.so.2.10.11:_ZN18PSafeLockReadWriteD1Ev
libpt.so.2.10.11:_ZN18PSafeLockReadWriteD2Ev
libpt.so.2.10.11:_ZN18PServiceHTTPString17GetExpirationDateER5PTime
libpt.so.2.10.11:_ZN18PServiceHTTPString8LoadTextER12PHTTPRequest
libpt.so.2.10.11:_ZN18PSortedListElementdlEPv
libpt.so.2.10.11:_ZN18PSortedListElementdlEPvPKci
libpt.so.2.10.11:_ZN18PSortedListElementnwEm
libpt.so.2.10.11:_ZN18PSortedListElementnwEmPKci
libpt.so.2.10.11:_ZN18PSystemLogToStderr6OutputEN10PSystemLog5LevelEPKc
libpt.so.2.10.11:_ZN18PSystemLogToSyslog6OutputEN10PSystemLog5LevelEPKc
libpt.so.2.10.11:_ZN18PSystemLogToSyslogC1Ev
libpt.so.2.10.11:_ZN18PSystemLogToSyslogC2Ev
libpt.so.2.10.11:_ZN18PSystemLogToSyslogD0Ev
libpt.so.2.10.11:_ZN18PSystemLogToSyslogD1Ev
libpt.so.2.10.11:_ZN18PSystemLogToSyslogD2Ev
libpt.so.2.10.11:_ZN18PVXMLDigitsGrammar11OnUserInputEc
libpt.so.2.10.11:_ZN18PVXMLDigitsGrammarC1ER12PVXMLSessionR11PXMLElementii7PString
libpt.so.2.10.11:_ZN18PVXMLDigitsGrammarC2ER12PVXMLSessionR11PXMLElementii7PString
libpt.so.2.10.11:_ZN18PVideoInputControl18GetCurrentPositionEN17PVideoControlInfo16InputControlTypeERl
libpt.so.2.10.11:_ZN18PVideoInputControl18GetDefaultPositionEN17PVideoControlInfo16InputControlTypeERl
libpt.so.2.10.11:_ZN18PVideoInputControl18SetCurrentPositionEN17PVideoControlInfo16InputControlTypeEl
libpt.so.2.10.11:_ZN18PVideoInputControl19GetVideoControlInfoEN17PVideoControlInfo16InputControlTypeERS0_
libpt.so.2.10.11:_ZN18PVideoInputControl3PanElb
libpt.so.2.10.11:_ZN18PVideoInputControl4TiltElb
libpt.so.2.10.11:_ZN18PVideoInputControl4ZoomElb
libpt.so.2.10.11:_ZN18PVideoInputControl5ResetEv
libpt.so.2.10.11:_ZN18PVideoInputControl6GetPanEv
libpt.so.2.10.11:_ZN18PVideoInputControl7GetTiltEv
libpt.so.2.10.11:_ZN18PVideoInputControl7GetZoomEv
libpt.so.2.10.11:_ZN18PVideoInputControlD0Ev
libpt.so.2.10.11:_ZN18PVideoInputControlD1Ev
libpt.so.2.10.11:_ZN18PVideoInputControlD2Ev
libpt.so.2.10.11:_ZN18PVideoOutputDevice11SetPositionEii
libpt.so.2.10.11:_ZN18PVideoOutputDevice12CreateDeviceERK7PStringP14PPluginManager
libpt.so.2.10.11:_ZN18PVideoOutputDevice12SetFrameDataEjjjjPKhbj
libpt.so.2.10.11:_ZN18PVideoOutputDevice12SetFrameDataEjjjjjjPKhbjPKv
libpt.so.2.10.11:_ZN18PVideoOutputDevice13DisableDecodeEv
libpt.so.2.10.11:_ZN18PVideoOutputDevice14GetDriverNamesEP14PPluginManager
libpt.so.2.10.11:_ZN18PVideoOutputDevice18CreateDeviceByNameERK7PStringS2_P14PPluginManager
libpt.so.2.10.11:_ZN18PVideoOutputDevice18CreateOpenedDeviceERK7PStringS2_bP14PPluginManager
libpt.so.2.10.11:_ZN18PVideoOutputDevice18CreateOpenedDeviceERKN12PVideoDevice8OpenArgsEb
libpt.so.2.10.11:_ZN18PVideoOutputDevice21GetDriversDeviceNamesERK7PStringP14PPluginManager
libpt.so.2.10.11:_ZN18PVideoOutputDeviceC1Ev
libpt.so.2.10.11:_ZN18PVideoOutputDeviceC2Ev
libpt.so.2.10.11:_ZN18PXConfigDictionary14RemoveInstanceEP8PXConfig
libpt.so.2.10.11:_ZN18PXConfigDictionary21GetFileConfigInstanceERK9PFilePathS2_
libpt.so.2.10.11:_ZN18PXConfigDictionary21WriteChangedInstancesEv
libpt.so.2.10.11:_ZN18PXConfigDictionary22GetEnvironmentInstanceEv
libpt.so.2.10.11:_ZN18PXConfigDictionaryC1Ev
libpt.so.2.10.11:_ZN18PXConfigDictionaryC2Ev
libpt.so.2.10.11:_ZN18PXConfigDictionaryD0Ev
libpt.so.2.10.11:_ZN18PXConfigDictionaryD1Ev
libpt.so.2.10.11:_ZN18PXConfigDictionaryD2Ev
libpt.so.2.10.11:_ZN19PASNUnsignedInteger16GetEncodedLengthEv
libpt.so.2.10.11:_ZN19PASNUnsignedInteger6DecodeERK10PBYTEArrayRiN10PASNObject7ASNTypeE
libpt.so.2.10.11:_ZN19PASNUnsignedInteger6EncodeER10PBYTEArrayN10PASNObject7ASNTypeE
libpt.so.2.10.11:_ZN19PAbstractDictionary13AbstractSetAtERK7PObjectPS0_
libpt.so.2.10.11:_ZN19PAbstractDictionary5SetAtEiP7PObject
libpt.so.2.10.11:_ZN19PAbstractDictionary6AppendEP7PObject
libpt.so.2.10.11:_ZN19PAbstractDictionary6InsertERK7PObjectPS0_
libpt.so.2.10.11:_ZN19PAbstractDictionary6RemoveEPK7PObject
libpt.so.2.10.11:_ZN19PAbstractDictionary8InsertAtEiP7PObject
libpt.so.2.10.11:_ZN19PAbstractDictionary8RemoveAtEi
libpt.so.2.10.11:_ZN19PAbstractDictionary9SetDataAtEiP7PObject
libpt.so.2.10.11:_ZN19PAbstractDictionaryC1EiPKS_
libpt.so.2.10.11:_ZN19PAbstractDictionaryC1Ev
libpt.so.2.10.11:_ZN19PAbstractDictionaryC2EiPKS_
libpt.so.2.10.11:_ZN19PAbstractDictionaryC2Ev
libpt.so.2.10.11:_ZN19PAbstractSortedList10LeftRotateEP18PSortedListElement
libpt.so.2.10.11:_ZN19PAbstractSortedList11RightRotateEP18PSortedListElement
libpt.so.2.10.11:_ZN19PAbstractSortedList12CopyContentsERKS_
libpt.so.2.10.11:_ZN19PAbstractSortedList13CloneContentsEPKS_
libpt.so.2.10.11:_ZN19PAbstractSortedList13RemoveElementEP18PSortedListElement
libpt.so.2.10.11:_ZN19PAbstractSortedList14DeleteSubTreesEP18PSortedListElementb
libpt.so.2.10.11:_ZN19PAbstractSortedList15DestroyContentsEv
libpt.so.2.10.11:_ZN19PAbstractSortedList5SetAtEiP7PObject
libpt.so.2.10.11:_ZN19PAbstractSortedList6AppendEP7PObject
libpt.so.2.10.11:_ZN19PAbstractSortedList6InsertERK7PObjectPS0_
libpt.so.2.10.11:_ZN19PAbstractSortedList6RemoveEPK7PObject
libpt.so.2.10.11:_ZN19PAbstractSortedList7SetSizeEi
libpt.so.2.10.11:_ZN19PAbstractSortedList8InsertAtEiP7PObject
libpt.so.2.10.11:_ZN19PAbstractSortedList8RemoveAtEi
libpt.so.2.10.11:_ZN19PAbstractSortedList9RemoveAllEv
libpt.so.2.10.11:_ZN19PAbstractSortedListC1Ev
libpt.so.2.10.11:_ZN19PAbstractSortedListC2Ev
libpt.so.2.10.11:_ZN19PConfigSectionsPage12OnLoadedTextER12PHTTPRequestR7PString
libpt.so.2.10.11:_ZN19PConfigSectionsPage17GetExpirationDateER5PTime
libpt.so.2.10.11:_ZN19PConfigSectionsPage4PostER12PHTTPRequestRK15PStringToStringR5PHTML
libpt.so.2.10.11:_ZN19PConfigSectionsPage6OnPOSTER11PHTTPServerRK4PURLRK9PMIMEInfoRK15PStringToStringRK19PHTTPConnectionInfo
libpt.so.2.10.11:_ZN19PConfigSectionsPageC1ER19PHTTPServiceProcessRK4PURLRK14PHTTPAuthorityRK7PStringSA_S4_S4_SA_R5PHTML
libpt.so.2.10.11:_ZN19PConfigSectionsPageC2ER19PHTTPServiceProcessRK4PURLRK14PHTTPAuthorityRK7PStringSA_S4_S4_SA_R5PHTML
libpt.so.2.10.11:_ZN19PContainerReferencedlEPv
libpt.so.2.10.11:_ZN19PContainerReferencedlEPvPKci
libpt.so.2.10.11:_ZN19PContainerReferencenwEm
libpt.so.2.10.11:_ZN19PContainerReferencenwEmPKci
libpt.so.2.10.11:_ZN19PHTTPCompositeField12SetAllValuesERK15PStringToString
libpt.so.2.10.11:_ZN19PHTTPCompositeField14LoadFromConfigER7PConfig
libpt.so.2.10.11:_ZN19PHTTPCompositeField6AppendEP10PHTTPField
libpt.so.2.10.11:_ZN19PHTTPCompositeField7SetNameERK7PString
libpt.so.2.10.11:_ZN19PHTTPCompositeField8SetValueERK7PString
libpt.so.2.10.11:_ZN19PHTTPCompositeFieldC1EPKcS1_S1_b
libpt.so.2.10.11:_ZN19PHTTPCompositeFieldC2EPKcS1_S1_b
libpt.so.2.10.11:_ZN19PHTTPConnectionInfo10InitialiseER11PHTTPServerR7PString
libpt.so.2.10.11:_ZN19PHTTPConnectionInfo7SetMIMEERK7PStringS2_
libpt.so.2.10.11:_ZN19PHTTPConnectionInfoC1Ev
libpt.so.2.10.11:_ZN19PHTTPConnectionInfoC2Ev
libpt.so.2.10.11:_ZN19PHTTPServiceProcess10AcceptHTTPEv
libpt.so.2.10.11:_ZN19PHTTPServiceProcess10OnContinueEv
libpt.so.2.10.11:_ZN19PHTTPServiceProcess11ProcessHTTPER10PTCPSocket
libpt.so.2.10.11:_ZN19PHTTPServiceProcess13GetPageHeaderER5PHTML
libpt.so.2.10.11:_ZN19PHTTPServiceProcess13GetPageHeaderER5PHTMLRK7PString
libpt.so.2.10.11:_ZN19PHTTPServiceProcess13ListenForHTTPEP7PSocketNS0_11ReusabilityEi
libpt.so.2.10.11:_ZN19PHTTPServiceProcess13ListenForHTTPEtN7PSocket11ReusabilityEi
libpt.so.2.10.11:_ZN19PHTTPServiceProcess14GetPageGraphicEv
libpt.so.2.10.11:_ZN19PHTTPServiceProcess16CreateHTTPServerER10PTCPSocket
libpt.so.2.10.11:_ZN19PHTTPServiceProcess16GetCopyrightTextEv
libpt.so.2.10.11:_ZN19PHTTPServiceProcess16ShutdownListenerEv
libpt.so.2.10.11:_ZN19PHTTPServiceProcess17AddRegisteredTextER5PHTML
libpt.so.2.10.11:_ZN19PHTTPServiceProcess18BeginRestartSystemEv
libpt.so.2.10.11:_ZN19PHTTPServiceProcess18OnCreateHTTPServerERK10PHTTPSpace
libpt.so.2.10.11:_ZN19PHTTPServiceProcess19AddUnregisteredTextER5PHTML
libpt.so.2.10.11:_ZN19PHTTPServiceProcess21CompleteRestartSystemEv
libpt.so.2.10.11:_ZN19PHTTPServiceProcess25SubstituteEquivalSequenceER12PHTTPRequestRK7PStringRS2_
libpt.so.2.10.11:_ZN19PHTTPServiceProcess6OnStopEv
libpt.so.2.10.11:_ZN19PHTTPServiceProcess7CurrentEv
libpt.so.2.10.11:_ZN19PHTTPServiceProcess7OnPauseEv
libpt.so.2.10.11:_ZN19PHTTPServiceProcess7OnStartEv
libpt.so.2.10.11:_ZN19PHTTPServiceProcessC1ERKNS_4InfoE
libpt.so.2.10.11:_ZN19PHTTPServiceProcessC2ERKNS_4InfoE
libpt.so.2.10.11:_ZN19PHTTPServiceProcessD0Ev
libpt.so.2.10.11:_ZN19PHTTPServiceProcessD1Ev
libpt.so.2.10.11:_ZN19PHTTPServiceProcessD2Ev
libpt.so.2.10.11:_ZN19PHouseKeepingThread4MainEv
libpt.so.2.10.11:_ZN19PRFC1155_ObjectNameC1EjN11PASN_Object8TagClassE
libpt.so.2.10.11:_ZN19PRFC1155_ObjectNameC2EjN11PASN_Object8TagClassE
libpt.so.2.10.11:_ZN19PSNMPVarBindingList12AppendStringERK7PStringS2_
libpt.so.2.10.11:_ZN19PSNMPVarBindingList6AppendERK7PString
libpt.so.2.10.11:_ZN19PSNMPVarBindingList6AppendERK7PStringP10PASNObject
libpt.so.2.10.11:_ZN19PSNMPVarBindingList9RemoveAllEv
libpt.so.2.10.11:_ZN19PSOAPServerResource10OnPOSTDataER12PHTTPRequestRK15PStringToString
libpt.so.2.10.11:_ZN19PSOAPServerResource11FormatFaultEiRK7PString
libpt.so.2.10.11:_ZN19PSOAPServerResource11LoadHeadersER12PHTTPRequest
libpt.so.2.10.11:_ZN19PSOAPServerResource13OnSOAPRequestERK7PStringR12PSOAPMessageRS0_
libpt.so.2.10.11:_ZN19PSOAPServerResource13OnSOAPRequestERK7PStringRS0_
libpt.so.2.10.11:_ZN19PSOAPServerResource9SetMethodERK7PStringRK17PNotifierTemplateIlE
libpt.so.2.10.11:_ZN19PSOAPServerResourceC1ERK14PHTTPAuthority
libpt.so.2.10.11:_ZN19PSOAPServerResourceC1ERK4PURL
libpt.so.2.10.11:_ZN19PSOAPServerResourceC1ERK4PURLRK14PHTTPAuthority
libpt.so.2.10.11:_ZN19PSOAPServerResourceC1Ev
libpt.so.2.10.11:_ZN19PSOAPServerResourceC2ERK14PHTTPAuthority
libpt.so.2.10.11:_ZN19PSOAPServerResourceC2ERK4PURL
libpt.so.2.10.11:_ZN19PSOAPServerResourceC2ERK4PURLRK14PHTTPAuthority
libpt.so.2.10.11:_ZN19PSOAPServerResourceC2Ev
libpt.so.2.10.11:_ZN19PServiceMacros_listC1Ev
libpt.so.2.10.11:_ZN19PServiceMacros_listC2Ev
libpt.so.2.10.11:_ZN19PSystemLogToNetwork6OutputEN10PSystemLog5LevelEPKc
libpt.so.2.10.11:_ZN19PSystemLogToNetworkC1ERK7PStringtj
libpt.so.2.10.11:_ZN19PSystemLogToNetworkC1ERKN9PIPSocket7AddressEtj
libpt.so.2.10.11:_ZN19PSystemLogToNetworkC2ERK7PStringtj
libpt.so.2.10.11:_ZN19PSystemLogToNetworkC2ERKN9PIPSocket7AddressEtj
libpt.so.2.10.11:_ZN19PWAVFileFormatG723112CreateHeaderERN4PWAV8FMTChunkER10PBYTEArray
libpt.so.2.10.11:_ZN19PWAVFileFormatG723116WriteExtraChunksER8PWAVFile
libpt.so.2.10.11:_ZN19PWAVFileFormatG72314ReadER8PWAVFilePvRi
libpt.so.2.10.11:_ZN19PWAVFileFormatG72315WriteER8PWAVFilePKvRi
libpt.so.2.10.11:_ZN19PWAVFileFormatG72317OnStartEv
libpt.so.2.10.11:_ZN19PWriteWaitAndSignalC1ERK15PReadWriteMutexb
libpt.so.2.10.11:_ZN19PWriteWaitAndSignalC2ERK15PReadWriteMutexb
libpt.so.2.10.11:_ZN19PWriteWaitAndSignalD1Ev
libpt.so.2.10.11:_ZN19PWriteWaitAndSignalD2Ev
libpt.so.2.10.11:_ZN19PXConfigWriteThread4MainEv
libpt.so.2.10.11:_ZN19PXConfigWriteThreadC1ER13PSyncPointAck
libpt.so.2.10.11:_ZN19PXConfigWriteThreadC2ER13PSyncPointAck
libpt.so.2.10.11:_ZN19PXConfigWriteThreadD0Ev
libpt.so.2.10.11:_ZN19PXConfigWriteThreadD1Ev
libpt.so.2.10.11:_ZN19PXConfigWriteThreadD2Ev
libpt.so.2.10.11:_ZN19PXMLRPCVariableBase10FromBase64ERK7PStringR14PAbstractArray
libpt.so.2.10.11:_ZN19PXMLRPCVariableBase10FromStringEiRK7PString
libpt.so.2.10.11:_ZN19PXMLRPCVariableBase7SetSizeEi
libpt.so.2.10.11:_ZN19PXMLRPCVariableBaseC1EPKcS1_
libpt.so.2.10.11:_ZN19PXMLRPCVariableBaseC2EPKcS1_
libpt.so.2.10.11:_ZN19PluginLoaderStartup10OnShutdownEv
libpt.so.2.10.11:_ZN19PluginLoaderStartup9OnStartupEv
libpt.so.2.10.11:_ZN19TextToSpeech_Sample11OpenChannelEP8PChannel
libpt.so.2.10.11:_ZN19TextToSpeech_Sample11SpeakNumberEj
libpt.so.2.10.11:_ZN19TextToSpeech_Sample12GetVoiceListEv
libpt.so.2.10.11:_ZN19TextToSpeech_Sample5CloseEv
libpt.so.2.10.11:_ZN19TextToSpeech_Sample5SpeakERK7PStringN13PTextToSpeech8TextTypeE
libpt.so.2.10.11:_ZN19TextToSpeech_Sample7GetRateEv
libpt.so.2.10.11:_ZN19TextToSpeech_Sample7SetRateEj
libpt.so.2.10.11:_ZN19TextToSpeech_Sample8OpenFileERK9PFilePath
libpt.so.2.10.11:_ZN19TextToSpeech_Sample8SetVoiceERK7PString
libpt.so.2.10.11:_ZN19TextToSpeech_Sample9GetVolumeEv
libpt.so.2.10.11:_ZN19TextToSpeech_Sample9SetVolumeEj
libpt.so.2.10.11:_ZN19TextToSpeech_Sample9SpeakFileERK7PString
libpt.so.2.10.11:_ZN19TextToSpeech_SampleC1Ev
libpt.so.2.10.11:_ZN19TextToSpeech_SampleC2Ev
libpt.so.2.10.11:_ZN20PASN_GeneralisedTimeaSERK5PTime
libpt.so.2.10.11:_ZN20PASN_PrintableStringC1EPKc
libpt.so.2.10.11:_ZN20PASN_PrintableStringC1EjN11PASN_Object8TagClassE
libpt.so.2.10.11:_ZN20PASN_PrintableStringC2EPKc
libpt.so.2.10.11:_ZN20PASN_PrintableStringC2EjN11PASN_Object8TagClassE
libpt.so.2.10.11:_ZN20PASN_PrintableStringaSEPKc
libpt.so.2.10.11:_ZN20PASN_PrintableStringaSERK7PString
libpt.so.2.10.11:_ZN20PChannelStreamBuffer13SetBufferSizeEi
libpt.so.2.10.11:_ZN20PChannelStreamBuffer4syncEv
libpt.so.2.10.11:_ZN20PChannelStreamBuffer7seekoffElSt12_Ios_SeekdirSt13_Ios_Openmode
libpt.so.2.10.11:_ZN20PChannelStreamBuffer7seekposESt4fposI11__mbstate_tESt13_Ios_Openmode
libpt.so.2.10.11:_ZN20PChannelStreamBuffer8overflowEi
libpt.so.2.10.11:_ZN20PChannelStreamBuffer9underflowEv
libpt.so.2.10.11:_ZN20PChannelStreamBufferC1EP8PChannel
libpt.so.2.10.11:_ZN20PChannelStreamBufferC1ERKS_
libpt.so.2.10.11:_ZN20PChannelStreamBufferC2EP8PChannel
libpt.so.2.10.11:_ZN20PChannelStreamBufferC2ERKS_
libpt.so.2.10.11:_ZN20PChannelStreamBufferaSERKS_
libpt.so.2.10.11:_ZN20PIpAccessControlList15LoadHostsAccessEPKc
libpt.so.2.10.11:_ZN20PIpAccessControlList18CreateControlEntryERK7PString
libpt.so.2.10.11:_ZN20PIpAccessControlList19InternalRemoveEntryER21PIpAccessControlEntry
libpt.so.2.10.11:_ZN20PIpAccessControlList23InternalLoadHostsAccessERK7PStringPKcb
libpt.so.2.10.11:_ZN20PIpAccessControlList3AddEN9PIPSocket7AddressES1_b
libpt.so.2.10.11:_ZN20PIpAccessControlList3AddEP21PIpAccessControlEntry
libpt.so.2.10.11:_ZN20PIpAccessControlList3AddERK7PString
libpt.so.2.10.11:_ZN20PIpAccessControlList6RemoveEN9PIPSocket7AddressES1_
libpt.so.2.10.11:_ZN20PIpAccessControlList6RemoveERK7PString
libpt.so.2.10.11:_ZN20PIpAccessControlListC1Eb
libpt.so.2.10.11:_ZN20PIpAccessControlListC2Eb
libpt.so.2.10.11:_ZN20PPluginModuleManager12OnLoadModuleER9PDynaLinkl
libpt.so.2.10.11:_ZN20PPluginModuleManagerC1EPKcP14PPluginManager
libpt.so.2.10.11:_ZN20PPluginModuleManagerC2EPKcP14PPluginManager
libpt.so.2.10.11:_ZN20PSNMP_GetRequest_PDUC1EjN11PASN_Object8TagClassE
libpt.so.2.10.11:_ZN20PSNMP_GetRequest_PDUC2EjN11PASN_Object8TagClassE
libpt.so.2.10.11:_ZN20PSNMP_SetRequest_PDUC1EjN11PASN_Object8TagClassE
libpt.so.2.10.11:_ZN20PSNMP_SetRequest_PDUC2EjN11PASN_Object8TagClassE
libpt.so.2.10.11:_ZN20PVXMLPlayableCommand4OpenER12PVXMLChannelRK7PStringiib
libpt.so.2.10.11:_ZN20PVXMLPlayableCommand6OnStopEv
libpt.so.2.10.11:_ZN20PVXMLPlayableCommand7OnStartEv
libpt.so.2.10.11:_ZN20PWAVFileConverterPCM11SetPositionER8PWAVFilelN5PFile18FilePositionOriginE
libpt.so.2.10.11:_ZN20PWAVFileConverterPCM13GetDataLengthER8PWAVFile
libpt.so.2.10.11:_ZN20PWAVFileConverterPCM4ReadER8PWAVFilePvi
libpt.so.2.10.11:_ZN20PWAVFileConverterPCM5WriteER8PWAVFilePKvi
libpt.so.2.10.11:_ZN21PIpAccessControlEntry5MatchERN9PIPSocket7AddressE
libpt.so.2.10.11:_ZN21PIpAccessControlEntry5ParseERK7PString
libpt.so.2.10.11:_ZN21PIpAccessControlEntry7IsValidEv
libpt.so.2.10.11:_ZN21PIpAccessControlEntry8ReadFromERSi
libpt.so.2.10.11:_ZN21PIpAccessControlEntryC1EN9PIPSocket7AddressES1_b
libpt.so.2.10.11:_ZN21PIpAccessControlEntryC1ERK7PString
libpt.so.2.10.11:_ZN21PIpAccessControlEntryC2EN9PIPSocket7AddressES1_b
libpt.so.2.10.11:_ZN21PIpAccessControlEntryC2ERK7PString
libpt.so.2.10.11:_ZN21PIpAccessControlEntryaSEPKc
libpt.so.2.10.11:_ZN21PIpAccessControlEntryaSERK7PString
libpt.so.2.10.11:_ZN21PRFC1155_ObjectSyntax12CreateObjectEv
libpt.so.2.10.11:_ZN21PRFC1155_ObjectSyntaxC1EjN11PASN_Object8TagClassE
libpt.so.2.10.11:_ZN21PRFC1155_ObjectSyntaxC2EjN11PASN_Object8TagClassE
libpt.so.2.10.11:_ZN21PRFC1155_ObjectSyntaxcvR21PRFC1155_SimpleSyntaxEv
libpt.so.2.10.11:_ZN21PRFC1155_ObjectSyntaxcvR26PRFC1155_ApplicationSyntaxEv
libpt.so.2.10.11:_ZN21PRFC1155_SimpleSyntax12CreateObjectEv
libpt.so.2.10.11:_ZN21PRFC1155_SimpleSyntaxC1EjN11PASN_Object8TagClassE
libpt.so.2.10.11:_ZN21PRFC1155_SimpleSyntaxC2EjN11PASN_Object8TagClassE
libpt.so.2.10.11:_ZN21PSNMP_GetResponse_PDUC1EjN11PASN_Object8TagClassE
libpt.so.2.10.11:_ZN21PSNMP_GetResponse_PDUC2EjN11PASN_Object8TagClassE
libpt.so.2.10.11:_ZN21PSafePtrMultiThreaded12DeleteObjectEP11PSafeObject
libpt.so.2.10.11:_ZN21PSafePtrMultiThreaded13SetSafetyModeE11PSafetyMode
libpt.so.2.10.11:_ZN21PSafePtrMultiThreaded4NextEv
libpt.so.2.10.11:_ZN21PSafePtrMultiThreaded6AssignEP11PSafeObject
libpt.so.2.10.11:_ZN21PSafePtrMultiThreaded6AssignERK12PSafePtrBase
libpt.so.2.10.11:_ZN21PSafePtrMultiThreaded6AssignERK15PSafeCollection
libpt.so.2.10.11:_ZN21PSafePtrMultiThreaded6AssignERKS_
libpt.so.2.10.11:_ZN21PSafePtrMultiThreaded6AssignEi
libpt.so.2.10.11:_ZN21PSafePtrMultiThreaded7SetNULLEv
libpt.so.2.10.11:_ZN21PSafePtrMultiThreaded8PreviousEv
libpt.so.2.10.11:_ZN21PSafePtrMultiThreaded9UnlockPtrEv
libpt.so.2.10.11:_ZN21PSafePtrMultiThreadedC1EP11PSafeObject11PSafetyMode
libpt.so.2.10.11:_ZN21PSafePtrMultiThreadedC1ERK15PSafeCollection11PSafetyModeP11PSafeObject
libpt.so.2.10.11:_ZN21PSafePtrMultiThreadedC1ERK15PSafeCollection11PSafetyModei
libpt.so.2.10.11:_ZN21PSafePtrMultiThreadedC1ERKS_
libpt.so.2.10.11:_ZN21PSafePtrMultiThreadedC2EP11PSafeObject11PSafetyMode
libpt.so.2.10.11:_ZN21PSafePtrMultiThreadedC2ERK15PSafeCollection11PSafetyModeP11PSafeObject
libpt.so.2.10.11:_ZN21PSafePtrMultiThreadedC2ERK15PSafeCollection11PSafetyModei
libpt.so.2.10.11:_ZN21PSafePtrMultiThreadedC2ERKS_
libpt.so.2.10.11:_ZN21PSafePtrMultiThreadedD0Ev
libpt.so.2.10.11:_ZN21PSafePtrMultiThreadedD1Ev
libpt.so.2.10.11:_ZN21PSafePtrMultiThreadedD2Ev
libpt.so.2.10.11:_ZN21PServiceHTTPDirectory12OnLoadedTextER12PHTTPRequestR7PString
libpt.so.2.10.11:_ZN21PServiceHTTPDirectory17GetExpirationDateER5PTime
libpt.so.2.10.11:_ZN21PSoundChannel_WAVFile10GetBuffersERiS0_
libpt.so.2.10.11:_ZN21PSoundChannel_WAVFile10ReadSampleERs
libpt.so.2.10.11:_ZN21PSoundChannel_WAVFile10SetBuffersEii
libpt.so.2.10.11:_ZN21PSoundChannel_WAVFile11ReadSamplesEPvi
libpt.so.2.10.11:_ZN21PSoundChannel_WAVFile14GetDeviceNamesEN13PSoundChannel10DirectionsE
libpt.so.2.10.11:_ZN21PSoundChannel_WAVFile14StartRecordingEv
libpt.so.2.10.11:_ZN21PSoundChannel_WAVFile16HasPlayCompletedEv
libpt.so.2.10.11:_ZN21PSoundChannel_WAVFile18IsRecordBufferFullEv
libpt.so.2.10.11:_ZN21PSoundChannel_WAVFile21WaitForPlayCompletionEv
libpt.so.2.10.11:_ZN21PSoundChannel_WAVFile23AreAllRecordBuffersFullEv
libpt.so.2.10.11:_ZN21PSoundChannel_WAVFile23WaitForRecordBufferFullEv
libpt.so.2.10.11:_ZN21PSoundChannel_WAVFile27WaitForAllRecordBuffersFullEv
libpt.so.2.10.11:_ZN21PSoundChannel_WAVFile4OpenERK7PStringN13PSoundChannel10DirectionsEjjj
libpt.so.2.10.11:_ZN21PSoundChannel_WAVFile4ReadEPvi
libpt.so.2.10.11:_ZN21PSoundChannel_WAVFile5CloseEv
libpt.so.2.10.11:_ZN21PSoundChannel_WAVFile5WriteEPKvi
libpt.so.2.10.11:_ZN21PSoundChannel_WAVFile9SetFormatEjjj
libpt.so.2.10.11:_ZN21PSoundChannel_WAVFileC1ERK7PStringN13PSoundChannel10DirectionsEjjj
libpt.so.2.10.11:_ZN21PSoundChannel_WAVFileC1Ev
libpt.so.2.10.11:_ZN21PSoundChannel_WAVFileC2ERK7PStringN13PSoundChannel10DirectionsEjjj
libpt.so.2.10.11:_ZN21PSoundChannel_WAVFileC2Ev
libpt.so.2.10.11:_ZN21PSoundChannel_WAVFileD0Ev
libpt.so.2.10.11:_ZN21PSoundChannel_WAVFileD1Ev
libpt.so.2.10.11:_ZN21PSoundChannel_WAVFileD2Ev
libpt.so.2.10.11:_ZN21PVXMLPlayableFileList4OpenER12PVXMLChannelRK12PStringArrayiib
libpt.so.2.10.11:_ZN21PVXMLPlayableFileList4OpenER12PVXMLChannelRK7PStringiib
libpt.so.2.10.11:_ZN21PVXMLPlayableFileList6OnStopEv
libpt.so.2.10.11:_ZN21PVXMLPlayableFileList7OnStartEv
libpt.so.2.10.11:_ZN21PVXMLPlayableFileList8OnRepeatEv
libpt.so.2.10.11:_ZN21PVXMLPlayableFileListC1Ev
libpt.so.2.10.11:_ZN21PVXMLPlayableFileListC2Ev
libpt.so.2.10.11:_ZN21PVideoInputDevice_Shm11IsCapturingEv
libpt.so.2.10.11:_ZN21PVideoInputDevice_Shm12GetFrameDataEPhPi
libpt.so.2.10.11:_ZN21PVideoInputDevice_Shm14TestAllFormatsEv
libpt.so.2.10.11:_ZN21PVideoInputDevice_Shm16GetMaxFrameBytesEv
libpt.so.2.10.11:_ZN21PVideoInputDevice_Shm18GetFrameSizeLimitsERjS0_S0_S0_
libpt.so.2.10.11:_ZN21PVideoInputDevice_Shm19GetFrameDataNoDelayEPhPi
libpt.so.2.10.11:_ZN21PVideoInputDevice_Shm19GetInputDeviceNamesEv
libpt.so.2.10.11:_ZN21PVideoInputDevice_Shm4OpenERK7PStringb
libpt.so.2.10.11:_ZN21PVideoInputDevice_Shm4StopEv
libpt.so.2.10.11:_ZN21PVideoInputDevice_Shm5CloseEv
libpt.so.2.10.11:_ZN21PVideoInputDevice_Shm5StartEv
libpt.so.2.10.11:_ZN21PVideoInputDevice_Shm6IsOpenEv
libpt.so.2.10.11:_ZN21PVideoInputDevice_Shm7shmInitEv
libpt.so.2.10.11:_ZN21PVideoInputDevice_Shm8GetFrameER10PBYTEArray
libpt.so.2.10.11:_ZN21PVideoInputDevice_ShmC1Ev
libpt.so.2.10.11:_ZN21PVideoInputDevice_ShmC2Ev
libpt.so.2.10.11:_ZN21PVideoInteractionInfo8AsStringERKNS_17InputInteractTypeE
libpt.so.2.10.11:_ZN21PVideoOutputDeviceRGB12SetFrameDataEjjjjPKhb
libpt.so.2.10.11:_ZN21PVideoOutputDeviceRGB12SetFrameSizeEjj
libpt.so.2.10.11:_ZN21PVideoOutputDeviceRGB15SetColourFormatERK7PString
libpt.so.2.10.11:_ZN21PVideoOutputDeviceRGB16GetMaxFrameBytesEv
libpt.so.2.10.11:_ZN21PVideoOutputDeviceRGBC1Ev
libpt.so.2.10.11:_ZN21PVideoOutputDeviceRGBC2Ev
libpt.so.2.10.11:_ZN21PXMLRPCServerResource10OnPOSTDataER12PHTTPRequestRK15PStringToString
libpt.so.2.10.11:_ZN21PXMLRPCServerResource11FormatFaultEiRK7PString
libpt.so.2.10.11:_ZN21PXMLRPCServerResource11LoadHeadersER12PHTTPRequest
libpt.so.2.10.11:_ZN21PXMLRPCServerResource15OnXMLRPCRequestERK7PStringR12PXMLRPCBlockRS0_
libpt.so.2.10.11:_ZN21PXMLRPCServerResource15OnXMLRPCRequestERK7PStringRS0_
libpt.so.2.10.11:_ZN21PXMLRPCServerResource9SetMethodERK7PStringRK17PNotifierTemplateIlE
libpt.so.2.10.11:_ZN21PXMLRPCServerResourceC1ERK14PHTTPAuthority
libpt.so.2.10.11:_ZN21PXMLRPCServerResourceC1ERK4PURL
libpt.so.2.10.11:_ZN21PXMLRPCServerResourceC1ERK4PURLRK14PHTTPAuthority
libpt.so.2.10.11:_ZN21PXMLRPCServerResourceC1Ev
libpt.so.2.10.11:_ZN21PXMLRPCServerResourceC2ERK14PHTTPAuthority
libpt.so.2.10.11:_ZN21PXMLRPCServerResourceC2ERK4PURL
libpt.so.2.10.11:_ZN21PXMLRPCServerResourceC2ERK4PURLRK14PHTTPAuthority
libpt.so.2.10.11:_ZN21PXMLRPCServerResourceC2Ev
libpt.so.2.10.11:_ZN22PASN_ConstrainedObject19SetConstraintBoundsEN11PASN_Object14ConstraintTypeEij
libpt.so.2.10.11:_ZN22PASN_ConstrainedObject23ConstrainedLengthDecodeER11PPER_StreamRj
libpt.so.2.10.11:_ZN22PASN_ConstrainedObjectC1EjN11PASN_Object8TagClassE
libpt.so.2.10.11:_ZN22PASN_ConstrainedObjectC2EjN11PASN_Object8TagClassE
libpt.so.2.10.11:_ZN22PASN_ConstrainedString15SetCharacterSetEN11PASN_Object14ConstraintTypeEPKc
libpt.so.2.10.11:_ZN22PASN_ConstrainedString15SetCharacterSetEN11PASN_Object14ConstraintTypeEjj
libpt.so.2.10.11:_ZN22PASN_ConstrainedString15SetCharacterSetEPKciN11PASN_Object14ConstraintTypeE
libpt.so.2.10.11:_ZN22PASN_ConstrainedString19SetConstraintBoundsEN11PASN_Object14ConstraintTypeEij
libpt.so.2.10.11:_ZN22PASN_ConstrainedString6DecodeER11PASN_Stream
libpt.so.2.10.11:_ZN22PASN_ConstrainedString9DecodeBERER11PBER_Streamj
libpt.so.2.10.11:_ZN22PASN_ConstrainedString9DecodePERER11PPER_Stream
libpt.so.2.10.11:_ZN22PASN_ConstrainedStringC1EPKcijN11PASN_Object8TagClassE
libpt.so.2.10.11:_ZN22PASN_ConstrainedStringC2EPKcijN11PASN_Object8TagClassE
libpt.so.2.10.11:_ZN22PASN_ConstrainedStringaSEPKc
libpt.so.2.10.11:_ZN22PHTTPConfigSectionList12OnLoadedTextER12PHTTPRequestR7PString
libpt.so.2.10.11:_ZN22PHTTPConfigSectionList4PostER12PHTTPRequestRK15PStringToStringR5PHTML
libpt.so.2.10.11:_ZN22PHTTPConfigSectionListC1ERK4PURLRK14PHTTPAuthorityRK7PStringS8_S2_S2_S8_R5PHTML
libpt.so.2.10.11:_ZN22PHTTPConfigSectionListC2ERK4PURLRK14PHTTPAuthorityRK7PStringS8_S2_S2_S8_R5PHTML
libpt.so.2.10.11:_ZN22PMonitoredSocketBundle10OpenSocketERK7PString
libpt.so.2.10.11:_ZN22PMonitoredSocketBundle11CloseSocketESt17_Rb_tree_iteratorISt4pairIKNSt7__cxx1112basic_stringIcSt11char_traitsIcESaIcEEEN17PMonitoredSockets10SocketInfoEEE
libpt.so.2.10.11:_ZN22PMonitoredSocketBundle13GetInterfacesEbRKN9PIPSocket7AddressE
libpt.so.2.10.11:_ZN22PMonitoredSocketBundle13WriteToBundleEPKviRKN9PIPSocket7AddressEtRK7PStringRi
libpt.so.2.10.11:_ZN22PMonitoredSocketBundle14OnAddInterfaceERKN9PIPSocket14InterfaceEntryE
libpt.so.2.10.11:_ZN22PMonitoredSocketBundle14ReadFromBundleEPviRN9PIPSocket7AddressERtR7PStringRiRK13PTimeInterval
libpt.so.2.10.11:_ZN22PMonitoredSocketBundle17OnRemoveInterfaceERKN9PIPSocket14InterfaceEntryE
libpt.so.2.10.11:_ZN22PMonitoredSocketBundle4OpenEt
libpt.so.2.10.11:_ZN22PMonitoredSocketBundle5CloseEv
libpt.so.2.10.11:_ZN22PMonitoredSocketBundleC1EbP10PNatMethod
libpt.so.2.10.11:_ZN22PMonitoredSocketBundleC2EbP10PNatMethod
libpt.so.2.10.11:_ZN22PMonitoredSocketBundleD0Ev
libpt.so.2.10.11:_ZN22PMonitoredSocketBundleD1Ev
libpt.so.2.10.11:_ZN22PMonitoredSocketBundleD2Ev
libpt.so.2.10.11:_ZN22PSingleMonitoredSocket13GetInterfacesEbRKN9PIPSocket7AddressE
libpt.so.2.10.11:_ZN22PSingleMonitoredSocket13WriteToBundleEPKviRKN9PIPSocket7AddressEtRK7PStringRi
libpt.so.2.10.11:_ZN22PSingleMonitoredSocket14OnAddInterfaceERKN9PIPSocket14InterfaceEntryE
libpt.so.2.10.11:_ZN22PSingleMonitoredSocket14ReadFromBundleEPviRN9PIPSocket7AddressERtR7PStringRiRK13PTimeInterval
libpt.so.2.10.11:_ZN22PSingleMonitoredSocket17OnRemoveInterfaceERKN9PIPSocket14InterfaceEntryE
libpt.so.2.10.11:_ZN22PSingleMonitoredSocket4OpenEt
libpt.so.2.10.11:_ZN22PSingleMonitoredSocket5CloseEv
libpt.so.2.10.11:_ZN22PSingleMonitoredSocketC1ERK7PStringbP10PNatMethod
libpt.so.2.10.11:_ZN22PSingleMonitoredSocketC2ERK7PStringbP10PNatMethod
libpt.so.2.10.11:_ZN22PSingleMonitoredSocketD0Ev
libpt.so.2.10.11:_ZN22PSingleMonitoredSocketD1Ev
libpt.so.2.10.11:_ZN22PSingleMonitoredSocketD2Ev
libpt.so.2.10.11:_ZN22PTextToSpeech_Festival11OpenChannelEP8PChannel
libpt.so.2.10.11:_ZN22PTextToSpeech_Festival12GetVoiceListEv
libpt.so.2.10.11:_ZN22PTextToSpeech_Festival5CloseEv
libpt.so.2.10.11:_ZN22PTextToSpeech_Festival5SpeakERK7PStringN13PTextToSpeech8TextTypeE
libpt.so.2.10.11:_ZN22PTextToSpeech_Festival6InvokeERK7PStringRK9PFilePath
libpt.so.2.10.11:_ZN22PTextToSpeech_Festival7GetRateEv
libpt.so.2.10.11:_ZN22PTextToSpeech_Festival7SetRateEj
libpt.so.2.10.11:_ZN22PTextToSpeech_Festival8OpenFileERK9PFilePath
libpt.so.2.10.11:_ZN22PTextToSpeech_Festival8SetVoiceERK7PString
libpt.so.2.10.11:_ZN22PTextToSpeech_Festival9GetVolumeEv
libpt.so.2.10.11:_ZN22PTextToSpeech_Festival9SetVolumeEj
libpt.so.2.10.11:_ZN22PTextToSpeech_FestivalC1Ev
libpt.so.2.10.11:_ZN22PTextToSpeech_FestivalC2Ev
libpt.so.2.10.11:_ZN22PTextToSpeech_FestivalD0Ev
libpt.so.2.10.11:_ZN22PTextToSpeech_FestivalD1Ev
libpt.so.2.10.11:_ZN22PTextToSpeech_FestivalD2Ev
libpt.so.2.10.11:_ZN22PVideoOutputDevice_SDL11FreeOverlayEv
libpt.so.2.10.11:_ZN22PVideoOutputDevice_SDL12SetFrameDataEjjjjPKhb
libpt.so.2.10.11:_ZN22PVideoOutputDevice_SDL12SetFrameSizeEjj
libpt.so.2.10.11:_ZN22PVideoOutputDevice_SDL13CreateOverlayEP11SDL_Surface
libpt.so.2.10.11:_ZN22PVideoOutputDevice_SDL13UpdateContentEv
libpt.so.2.10.11:_ZN22PVideoOutputDevice_SDL15SetColourFormatERK7PString
libpt.so.2.10.11:_ZN22PVideoOutputDevice_SDL16GetMaxFrameBytesEv
libpt.so.2.10.11:_ZN22PVideoOutputDevice_SDL4OpenERK7PStringb
libpt.so.2.10.11:_ZN22PVideoOutputDevice_SDL5CloseEv
libpt.so.2.10.11:_ZN22PVideoOutputDevice_SDL6IsOpenEv
libpt.so.2.10.11:_ZN22PVideoOutputDevice_SDL9PostEventEjb
libpt.so.2.10.11:_ZN22PVideoOutputDevice_SDLC1Ev
libpt.so.2.10.11:_ZN22PVideoOutputDevice_SDLC2Ev
libpt.so.2.10.11:_ZN22PVideoOutputDevice_SDLD0Ev
libpt.so.2.10.11:_ZN22PVideoOutputDevice_SDLD1Ev
libpt.so.2.10.11:_ZN22PVideoOutputDevice_SDLD2Ev
libpt.so.2.10.11:_ZN22PVideoOutputDevice_Shm12SetFrameDataEjjjjPKhb
libpt.so.2.10.11:_ZN22PVideoOutputDevice_Shm12SetFrameSizeEjj
libpt.so.2.10.11:_ZN22PVideoOutputDevice_Shm15SetColourFormatERK7PString
libpt.so.2.10.11:_ZN22PVideoOutputDevice_Shm16GetMaxFrameBytesEv
libpt.so.2.10.11:_ZN22PVideoOutputDevice_Shm4OpenERK7PStringb
libpt.so.2.10.11:_ZN22PVideoOutputDevice_Shm5CloseEv
libpt.so.2.10.11:_ZN22PVideoOutputDevice_Shm6IsOpenEv
libpt.so.2.10.11:_ZN22PVideoOutputDevice_Shm7shmInitEv
libpt.so.2.10.11:_ZN22PVideoOutputDevice_Shm8EndFrameEv
libpt.so.2.10.11:_ZN22PVideoOutputDevice_ShmC1Ev
libpt.so.2.10.11:_ZN22PVideoOutputDevice_ShmC2Ev
libpt.so.2.10.11:_ZN23PIPSocketAddressAndPort10SetAddressERKN9PIPSocket7AddressEt
libpt.so.2.10.11:_ZN23PIPSocketAddressAndPort5ParseERK7PStringtc
libpt.so.2.10.11:_ZN23PInterfaceMonitorClient13GetInterfacesEbRKN9PIPSocket7AddressE
libpt.so.2.10.11:_ZN23PInterfaceMonitorClientC1Ei
libpt.so.2.10.11:_ZN23PInterfaceMonitorClientC2Ei
libpt.so.2.10.11:_ZN23PInterfaceMonitorClientD0Ev
libpt.so.2.10.11:_ZN23PInterfaceMonitorClientD1Ev
libpt.so.2.10.11:_ZN23PInterfaceMonitorClientD2Ev
libpt.so.2.10.11:_ZN23PMonitoredSocketChannel12GetInterfaceEv
libpt.so.2.10.11:_ZN23PMonitoredSocketChannel12SetInterfaceERK7PString
libpt.so.2.10.11:_ZN23PMonitoredSocketChannel4ReadEPvi
libpt.so.2.10.11:_ZN23PMonitoredSocketChannel5CloseEv
libpt.so.2.10.11:_ZN23PMonitoredSocketChannel5WriteEPKvi
libpt.so.2.10.11:_ZN23PMonitoredSocketChannel8GetLocalERN9PIPSocket7AddressERtb
libpt.so.2.10.11:_ZN23PMonitoredSocketChannel9SetRemoteERK7PString
libpt.so.2.10.11:_ZN23PMonitoredSocketChannel9SetRemoteERKN9PIPSocket7AddressEt
libpt.so.2.10.11:_ZN23PMonitoredSocketChannelC1ERK8PSafePtrI17PMonitoredSockets12PSafePtrBaseEb
libpt.so.2.10.11:_ZN23PMonitoredSocketChannelC2ERK8PSafePtrI17PMonitoredSockets12PSafePtrBaseEb
libpt.so.2.10.11:_ZN23PRFC1155_NetworkAddress12CreateObjectEv
libpt.so.2.10.11:_ZN23PRFC1155_NetworkAddressC1EjN11PASN_Object8TagClassE
libpt.so.2.10.11:_ZN23PRFC1155_NetworkAddressC2EjN11PASN_Object8TagClassE
libpt.so.2.10.11:_ZN23PRFC1155_NetworkAddresscvR18PRFC1155_IpAddressEv
libpt.so.2.10.11:_ZN23PSmartNotifieeRegistrar11GetNotifieeEj
libpt.so.2.10.11:_ZN23PSmartNotifieeRegistrar16RegisterNotifieeEPv
libpt.so.2.10.11:_ZN23PSmartNotifieeRegistrar18UnregisterNotifieeEPv
libpt.so.2.10.11:_ZN23PSmartNotifieeRegistrar18UnregisterNotifieeEj
libpt.so.2.10.11:_ZN23PVXMLRecordableFilename4OpenERK7PString
libpt.so.2.10.11:_ZN23PVXMLRecordableFilename7OnFrameEb
libpt.so.2.10.11:_ZN23PVXMLRecordableFilename7OnStartER12PVXMLChannel
libpt.so.2.10.11:_ZN23PXMLRPCArrayObjectsBase10FromStringEiRK7PString
libpt.so.2.10.11:_ZN23PXMLRPCArrayObjectsBase7SetSizeEi
libpt.so.2.10.11:_ZN23PXMLRPCArrayObjectsBaseC1ER13PArrayObjectsPKcS3_
libpt.so.2.10.11:_ZN23PXMLRPCArrayObjectsBaseC2ER13PArrayObjectsPKcS3_
libpt.so.2.10.11:_ZN24PHTTPClientAuthenticator13GetEntityBodyEv
libpt.so.2.10.11:_ZN24PHTTPClientAuthenticator6GetURIEv
libpt.so.2.10.11:_ZN24PHTTPClientAuthenticator7GetMIMEEv
libpt.so.2.10.11:_ZN24PHTTPClientAuthenticator9GetMethodEv
libpt.so.2.10.11:_ZN24PHTTPClientAuthenticatorC1ERK7PStringS2_R9PMIMEInfoS2_
libpt.so.2.10.11:_ZN24PHTTPClientAuthenticatorC2ERK7PStringS2_R9PMIMEInfoS2_
libpt.so.2.10.11:_ZN24PSNMP_GetNextRequest_PDUC1EjN11PASN_Object8TagClassE
libpt.so.2.10.11:_ZN24PSNMP_GetNextRequest_PDUC2EjN11PASN_Object8TagClassE
libpt.so.2.10.11:_ZN24PStandardColourConverter10MJPEGtoXXXEPKhPhPii
libpt.so.2.10.11:_ZN24PStandardColourConverter12RGBtoYUV420PEPKhPhPijjj
libpt.so.2.10.11:_ZN24PStandardColourConverter14MJPEGtoYUV420PEPKhPhPi
libpt.so.2.10.11:_ZN24PStandardColourConverter15SBGGR8toYUV420PEPKhPhPi
libpt.so.2.10.11:_ZN24PStandardColourConverter18MJPEGtoXXXSameSizeEPKhPhi
libpt.so.2.10.11:_ZN24PStandardColourConverter22MJPEGtoYUV420PSameSizeEPKhPh
libpt.so.2.10.11:_ZN24PVideoInputDevice_FFMPEG10SetChannelEi
libpt.so.2.10.11:_ZN24PVideoInputDevice_FFMPEG11IsCapturingEv
libpt.so.2.10.11:_ZN24PVideoInputDevice_FFMPEG12GetFrameDataEPhPi
libpt.so.2.10.11:_ZN24PVideoInputDevice_FFMPEG12SetFrameRateEj
libpt.so.2.10.11:_ZN24PVideoInputDevice_FFMPEG12SetFrameSizeEjj
libpt.so.2.10.11:_ZN24PVideoInputDevice_FFMPEG14GetNumChannelsEv
libpt.so.2.10.11:_ZN24PVideoInputDevice_FFMPEG14SetVideoFormatEN12PVideoDevice11VideoFormatE
libpt.so.2.10.11:_ZN24PVideoInputDevice_FFMPEG15SetColourFormatERK7PString
libpt.so.2.10.11:_ZN24PVideoInputDevice_FFMPEG16GetMaxFrameBytesEv
libpt.so.2.10.11:_ZN24PVideoInputDevice_FFMPEG18GetFrameSizeLimitsERjS0_S0_S0_
libpt.so.2.10.11:_ZN24PVideoInputDevice_FFMPEG19GetFrameDataNoDelayEPhPi
libpt.so.2.10.11:_ZN24PVideoInputDevice_FFMPEG19GetInputDeviceNamesEv
libpt.so.2.10.11:_ZN24PVideoInputDevice_FFMPEG4OpenERK7PStringb
libpt.so.2.10.11:_ZN24PVideoInputDevice_FFMPEG4StopEv
libpt.so.2.10.11:_ZN24PVideoInputDevice_FFMPEG5CloseEv
libpt.so.2.10.11:_ZN24PVideoInputDevice_FFMPEG5StartEv
libpt.so.2.10.11:_ZN24PVideoInputDevice_FFMPEG6IsOpenEv
libpt.so.2.10.11:_ZN24PVideoInputDevice_FFMPEGC1Ev
libpt.so.2.10.11:_ZN24PVideoInputDevice_FFMPEGC2Ev
libpt.so.2.10.11:_ZN24PVideoInputDevice_FFMPEGD0Ev
libpt.so.2.10.11:_ZN24PVideoInputDevice_FFMPEGD1Ev
libpt.so.2.10.11:_ZN24PVideoInputDevice_FFMPEGD2Ev
libpt.so.2.10.11:_ZN25PHTTPClientAuthentication27ParseAuthenticationRequiredEbRK9PMIMEInfoR7PString
libpt.so.2.10.11:_ZN25PHTTPClientAuthenticationC1Ev
libpt.so.2.10.11:_ZN25PHTTPClientAuthenticationC2Ev
libpt.so.2.10.11:_ZN25PSecureHTTPServiceProcess16CreateHTTPServerER10PTCPSocket
libpt.so.2.10.11:_ZN25PSecureHTTPServiceProcess19CreateNonSSLMessageERK7PString
libpt.so.2.10.11:_ZN25PSecureHTTPServiceProcess20SetServerCertificateERK9PFilePathbPKc
libpt.so.2.10.11:_ZN25PSecureHTTPServiceProcess21CreateRedirectMessageERK7PString
libpt.so.2.10.11:_ZN25PSecureHTTPServiceProcess26OnDetectedNonSSLConnectionEP8PChannelRK7PString
libpt.so.2.10.11:_ZN25PSecureHTTPServiceProcessC1ERKN19PHTTPServiceProcess4InfoE
libpt.so.2.10.11:_ZN25PSecureHTTPServiceProcessC2ERKN19PHTTPServiceProcess4InfoE
libpt.so.2.10.11:_ZN25PSecureHTTPServiceProcessD0Ev
libpt.so.2.10.11:_ZN25PSecureHTTPServiceProcessD1Ev
libpt.so.2.10.11:_ZN25PSecureHTTPServiceProcessD2Ev
libpt.so.2.10.11:_ZN25PVideoInputDevice_YUVFile10SetChannelEi
libpt.so.2.10.11:_ZN25PVideoInputDevice_YUVFile11IsCapturingEv
libpt.so.2.10.11:_ZN25PVideoInputDevice_YUVFile12GetFrameDataEPhPi
libpt.so.2.10.11:_ZN25PVideoInputDevice_YUVFile12SetFrameRateEj
libpt.so.2.10.11:_ZN25PVideoInputDevice_YUVFile12SetFrameSizeEjj
libpt.so.2.10.11:_ZN25PVideoInputDevice_YUVFile14GetNumChannelsEv
libpt.so.2.10.11:_ZN25PVideoInputDevice_YUVFile14SetVideoFormatEN12PVideoDevice11VideoFormatE
libpt.so.2.10.11:_ZN25PVideoInputDevice_YUVFile15SetColourFormatERK7PString
libpt.so.2.10.11:_ZN25PVideoInputDevice_YUVFile16GetMaxFrameBytesEv
libpt.so.2.10.11:_ZN25PVideoInputDevice_YUVFile18GetFrameSizeLimitsERjS0_S0_S0_
libpt.so.2.10.11:_ZN25PVideoInputDevice_YUVFile19GetFrameDataNoDelayEPhPi
libpt.so.2.10.11:_ZN25PVideoInputDevice_YUVFile19GetInputDeviceNamesEv
libpt.so.2.10.11:_ZN25PVideoInputDevice_YUVFile4OpenERK7PStringb
libpt.so.2.10.11:_ZN25PVideoInputDevice_YUVFile4StopEv
libpt.so.2.10.11:_ZN25PVideoInputDevice_YUVFile5CloseEv
libpt.so.2.10.11:_ZN25PVideoInputDevice_YUVFile5StartEv
libpt.so.2.10.11:_ZN25PVideoInputDevice_YUVFile6IsOpenEv
libpt.so.2.10.11:_ZN25PVideoInputDevice_YUVFileC1Ev
libpt.so.2.10.11:_ZN25PVideoInputDevice_YUVFileC2Ev
libpt.so.2.10.11:_ZN25PVideoInputDevice_YUVFileD0Ev
libpt.so.2.10.11:_ZN25PVideoInputDevice_YUVFileD1Ev
libpt.so.2.10.11:_ZN25PVideoInputDevice_YUVFileD2Ev
libpt.so.2.10.11:_ZN26PRFC1155_ApplicationSyntax12CreateObjectEv
libpt.so.2.10.11:_ZN26PRFC1155_ApplicationSyntaxC1EjN11PASN_Object8TagClassE
libpt.so.2.10.11:_ZN26PRFC1155_ApplicationSyntaxC2EjN11PASN_Object8TagClassE
libpt.so.2.10.11:_ZN26PRFC1155_ApplicationSyntaxcvR14PRFC1155_GaugeEv
libpt.so.2.10.11:_ZN26PRFC1155_ApplicationSyntaxcvR15PRFC1155_OpaqueEv
libpt.so.2.10.11:_ZN26PRFC1155_ApplicationSyntaxcvR16PRFC1155_CounterEv
libpt.so.2.10.11:_ZN26PRFC1155_ApplicationSyntaxcvR18PRFC1155_TimeTicksEv
libpt.so.2.10.11:_ZN26PRFC1155_ApplicationSyntaxcvR23PRFC1155_NetworkAddressEv
libpt.so.2.10.11:_ZN26PSynonymColourRegistrationC1EPKcS1_
libpt.so.2.10.11:_ZN26PSynonymColourRegistrationC2EPKcS1_
libpt.so.2.10.11:_ZN26PVideoOutputDevice_YUVFile12SetFrameDataEjjjjPKhb
libpt.so.2.10.11:_ZN26PVideoOutputDevice_YUVFile15SetColourFormatERK7PString
libpt.so.2.10.11:_ZN26PVideoOutputDevice_YUVFile16GetMaxFrameBytesEv
libpt.so.2.10.11:_ZN26PVideoOutputDevice_YUVFile20GetOutputDeviceNamesEv
libpt.so.2.10.11:_ZN26PVideoOutputDevice_YUVFile4OpenERK7PStringb
libpt.so.2.10.11:_ZN26PVideoOutputDevice_YUVFile4StopEv
libpt.so.2.10.11:_ZN26PVideoOutputDevice_YUVFile5CloseEv
libpt.so.2.10.11:_ZN26PVideoOutputDevice_YUVFile5StartEv
libpt.so.2.10.11:_ZN26PVideoOutputDevice_YUVFile6IsOpenEv
libpt.so.2.10.11:_ZN26PVideoOutputDevice_YUVFileC1Ev
libpt.so.2.10.11:_ZN26PVideoOutputDevice_YUVFileC2Ev
libpt.so.2.10.11:_ZN26PVideoOutputDevice_YUVFileD0Ev
libpt.so.2.10.11:_ZN26PVideoOutputDevice_YUVFileD1Ev
libpt.so.2.10.11:_ZN26PVideoOutputDevice_YUVFileD2Ev
libpt.so.2.10.11:_ZN27PVideoInputDevice_FakeVideo10SetChannelEi
libpt.so.2.10.11:_ZN27PVideoInputDevice_FakeVideo11IsCapturingEv
libpt.so.2.10.11:_ZN27PVideoInputDevice_FakeVideo12GetFrameDataEPhPi
libpt.so.2.10.11:_ZN27PVideoInputDevice_FakeVideo12SetFrameRateEj
libpt.so.2.10.11:_ZN27PVideoInputDevice_FakeVideo12SetFrameSizeEjj
libpt.so.2.10.11:_ZN27PVideoInputDevice_FakeVideo14GetNumChannelsEv
libpt.so.2.10.11:_ZN27PVideoInputDevice_FakeVideo14SetVideoFormatEN12PVideoDevice11VideoFormatE
libpt.so.2.10.11:_ZN27PVideoInputDevice_FakeVideo15GrabSolidColourEPh
libpt.so.2.10.11:_ZN27PVideoInputDevice_FakeVideo15SetColourFormatERK7PString
libpt.so.2.10.11:_ZN27PVideoInputDevice_FakeVideo16GetMaxFrameBytesEv
libpt.so.2.10.11:_ZN27PVideoInputDevice_FakeVideo17GrabBouncingBoxesEPh
libpt.so.2.10.11:_ZN27PVideoInputDevice_FakeVideo17GrabNTSCTestFrameEPh
libpt.so.2.10.11:_ZN27PVideoInputDevice_FakeVideo18GetFrameSizeLimitsERjS0_S0_S0_
libpt.so.2.10.11:_ZN27PVideoInputDevice_FakeVideo18GrabTextVideoFrameEPh
libpt.so.2.10.11:_ZN27PVideoInputDevice_FakeVideo19GetFrameDataNoDelayEPhPi
libpt.so.2.10.11:_ZN27PVideoInputDevice_FakeVideo19GetInputDeviceNamesEv
libpt.so.2.10.11:_ZN27PVideoInputDevice_FakeVideo23GrabMovingLineTestFrameEPh
libpt.so.2.10.11:_ZN27PVideoInputDevice_FakeVideo25GrabMovingBlocksTestFrameEPh
libpt.so.2.10.11:_ZN27PVideoInputDevice_FakeVideo29GrabOriginalMovingBlocksFrameEPh
libpt.so.2.10.11:_ZN27PVideoInputDevice_FakeVideo4OpenERK7PStringb
libpt.so.2.10.11:_ZN27PVideoInputDevice_FakeVideo4StopEv
libpt.so.2.10.11:_ZN27PVideoInputDevice_FakeVideo5CloseEv
libpt.so.2.10.11:_ZN27PVideoInputDevice_FakeVideo5StartEv
libpt.so.2.10.11:_ZN27PVideoInputDevice_FakeVideo6IsOpenEv
libpt.so.2.10.11:_ZN27PVideoInputDevice_FakeVideo8FillRectEPhiiiiiii
libpt.so.2.10.11:_ZN27PVideoInputDevice_FakeVideoC1Ev
libpt.so.2.10.11:_ZN27PVideoInputDevice_FakeVideoC2Ev
libpt.so.2.10.11:_ZN28PColourConverterRegistrationC1ERK7PStringS2_
libpt.so.2.10.11:_ZN28PColourConverterRegistrationC2ERK7PStringS2_
libpt.so.2.10.11:_ZN29PVideoOutputDevice_NULLOutput12SetFrameDataEjjjjPKhb
libpt.so.2.10.11:_ZN29PVideoOutputDevice_NULLOutput13DisableDecodeEv
libpt.so.2.10.11:_ZN29PVideoOutputDevice_NULLOutput16GetMaxFrameBytesEv
libpt.so.2.10.11:_ZN29PVideoOutputDevice_NULLOutput20GetOutputDeviceNamesEv
libpt.so.2.10.11:_ZN29PVideoOutputDevice_NULLOutput4OpenERK7PStringb
libpt.so.2.10.11:_ZN29PVideoOutputDevice_NULLOutput4StopEv
libpt.so.2.10.11:_ZN29PVideoOutputDevice_NULLOutput5CloseEv
libpt.so.2.10.11:_ZN29PVideoOutputDevice_NULLOutput5StartEv
libpt.so.2.10.11:_ZN29PVideoOutputDevice_NULLOutput6IsOpenEv
libpt.so.2.10.11:_ZN29PVideoOutputDevice_NULLOutput8EndFrameEv
libpt.so.2.10.11:_ZN29PVideoOutputDevice_NULLOutputC1Ev
libpt.so.2.10.11:_ZN29PVideoOutputDevice_NULLOutputC2Ev
libpt.so.2.10.11:_ZN30PHTTPClientBasicAuthentication5ParseERK7PStringb
libpt.so.2.10.11:_ZN30PHTTPClientBasicAuthenticationC1Ev
libpt.so.2.10.11:_ZN30PHTTPClientBasicAuthenticationC2Ev
libpt.so.2.10.11:_ZN31PHTTPClientDigestAuthentication5ParseERK7PStringb
libpt.so.2.10.11:_ZN31PHTTPClientDigestAuthenticationC1Ev
libpt.so.2.10.11:_ZN31PHTTPClientDigestAuthenticationC2Ev
libpt.so.2.10.11:_ZN31PHTTPClientDigestAuthenticationaSERKS_
libpt.so.2.10.11:_ZN4PCLI10AddContextEPNS_7ContextE
libpt.so.2.10.11:_ZN4PCLI10RunContextEPNS_7ContextE
libpt.so.2.10.11:_ZN4PCLI10SetCommandEPKcRK17PNotifierTemplateIlES1_S1_
libpt.so.2.10.11:_ZN4PCLI12StartContextEP8PChannelS1_bbb
libpt.so.2.10.11:_ZN4PCLI12StartContextEP8PChannelbb
libpt.so.2.10.11:_ZN4PCLI13CreateContextEv
libpt.so.2.10.11:_ZN4PCLI13RemoveContextEPNS_7ContextE
libpt.so.2.10.11:_ZN4PCLI14OnReceivedLineERNS_9ArgumentsE
libpt.so.2.10.11:_ZN4PCLI15StartForegroundEv
libpt.so.2.10.11:_ZN4PCLI17GarbageCollectionEv
libpt.so.2.10.11:_ZN4PCLI4StopEv
libpt.so.2.10.11:_ZN4PCLI5StartEb
libpt.so.2.10.11:_ZN4PCLI7Context10ThreadMainER7PThreadl
libpt.so.2.10.11:_ZN4PCLI7Context11WritePromptEv
libpt.so.2.10.11:_ZN4PCLI7Context12ProcessInputERK7PString
libpt.so.2.10.11:_ZN4PCLI7Context12ProcessInputEi
libpt.so.2.10.11:_ZN4PCLI7Context15OnCompletedLineEv
libpt.so.2.10.11:_ZN4PCLI7Context19ReadAndProcessInputEv
libpt.so.2.10.11:_ZN4PCLI7Context4StopEv
libpt.so.2.10.11:_ZN4PCLI7Context5StartEv
libpt.so.2.10.11:_ZN4PCLI7Context5WriteEPKvi
libpt.so.2.10.11:_ZN4PCLI7Context6OnStopEv
libpt.so.2.10.11:_ZN4PCLI7Context7OnStartEv
libpt.so.2.10.11:_ZN4PCLI7ContextC1ERS_
libpt.so.2.10.11:_ZN4PCLI7ContextC2ERS_
libpt.so.2.10.11:_ZN4PCLI7ContextD0Ev
libpt.so.2.10.11:_ZN4PCLI7ContextD1Ev
libpt.so.2.10.11:_ZN4PCLI7ContextD2Ev
libpt.so.2.10.11:_ZN4PCLI7OnLogInERK7PStringS2_
libpt.so.2.10.11:_ZN4PCLI8ShowHelpERNS_7ContextE
libpt.so.2.10.11:_ZN4PCLI9Arguments10WriteErrorERK7PString
libpt.so.2.10.11:_ZN4PCLI9Arguments10WriteUsageEv
libpt.so.2.10.11:_ZN4PCLI9ArgumentsC1ERNS_7ContextERK7PString
libpt.so.2.10.11:_ZN4PCLI9ArgumentsC2ERNS_7ContextERK7PString
libpt.so.2.10.11:_ZN4PCLIC1EPKc
libpt.so.2.10.11:_ZN4PCLIC2EPKc
libpt.so.2.10.11:_ZN4PCLID0Ev
libpt.so.2.10.11:_ZN4PCLID1Ev
libpt.so.2.10.11:_ZN4PCLID2Ev
libpt.so.2.10.11:_ZN4PDNS10ENUMLookupERK7PStringS2_RK12PStringArrayRS0_
libpt.so.2.10.11:_ZN4PDNS10ENUMLookupERK7PStringS2_RS0_
libpt.so.2.10.11:_ZN4PDNS12MXRecordList15HandleDNSRecordEP9DnsRecordS2_
libpt.so.2.10.11:_ZN4PDNS12MXRecordList7GetNextEv
libpt.so.2.10.11:_ZN4PDNS12MXRecordList8GetFirstEv
libpt.so.2.10.11:_ZN4PDNS13GetSRVRecordsERK7PStringS2_S2_RNS_13SRVRecordListE
libpt.so.2.10.11:_ZN4PDNS13SRVRecordList15HandleDNSRecordEP9DnsRecordS2_
libpt.so.2.10.11:_ZN4PDNS13SRVRecordList7GetNextEv
libpt.so.2.10.11:_ZN4PDNS13SRVRecordList8GetFirstEv
libpt.so.2.10.11:_ZN4PDNS13SetRDSServersERK12PStringArray
libpt.so.2.10.11:_ZN4PDNS14SetENUMServersERK12PStringArray
libpt.so.2.10.11:_ZN4PDNS15Cached_DnsQueryEPKctjPvPP9DnsRecordS2_
libpt.so.2.10.11:_ZN4PDNS15NAPTRRecordList15HandleDNSRecordEP9DnsRecordS2_
libpt.so.2.10.11:_ZN4PDNS15NAPTRRecordList7GetNextEPKc
libpt.so.2.10.11:_ZN4PDNS15NAPTRRecordList8GetFirstEPKc
libpt.so.2.10.11:_ZN4PDNS9LookupSRVERK4PURLRK7PStringR11PStringList
libpt.so.2.10.11:_ZN4PDNS9LookupSRVERK7PStringS2_tRSt6vectorI23PIPSocketAddressAndPortSaIS4_EE
libpt.so.2.10.11:_ZN4PDNS9LookupSRVERK7PStringtRSt6vectorI23PIPSocketAddressAndPortSaIS4_EE
libpt.so.2.10.11:_ZN4PDNS9RDSLookupERK4PURLRK7PStringR11PStringList
libpt.so.2.10.11:_ZN4PDNS9RDSLookupERK4PURLRK7PStringRK12PStringArrayR11PStringList
libpt.so.2.10.11:_ZN4PFTP8SendPORTERKN9PIPSocket7AddressEt
libpt.so.2.10.11:_ZN4PFTPC1Ev
libpt.so.2.10.11:_ZN4PFTPC2Ev
libpt.so.2.10.11:_ZN4PLua10LoadStringEPKc
libpt.so.2.10.11:_ZN4PLua11GetInstanceEP9lua_State
libpt.so.2.10.11:_ZN4PLua11SetFunctionEPKcPFiP9lua_StateE
libpt.so.2.10.11:_ZN4PLua13TraceFunctionEP9lua_State
libpt.so.2.10.11:_ZN4PLua15CallLuaFunctionEPKc
libpt.so.2.10.11:_ZN4PLua15CallLuaFunctionEPKcS1_z
libpt.so.2.10.11:_ZN4PLua17BindToInstanceEndEPKc
libpt.so.2.10.11:_ZN4PLua18BindToInstanceFuncEPKcPvPFiP9lua_StateE
libpt.so.2.10.11:_ZN4PLua19BindToInstanceStartEPKc
libpt.so.2.10.11:_ZN4PLua3RunEPKc
libpt.so.2.10.11:_ZN4PLua7OnErrorEiRK7PString
libpt.so.2.10.11:_ZN4PLua8GetValueEPKc
libpt.so.2.10.11:_ZN4PLua8LoadFileEPKc
libpt.so.2.10.11:_ZN4PLua8SetValueEPKcS1_
libpt.so.2.10.11:_ZN4PLuaC1Ev
libpt.so.2.10.11:_ZN4PLuaC2Ev
libpt.so.2.10.11:_ZN4PLuaD1Ev
libpt.so.2.10.11:_ZN4PLuaD2Ev
libpt.so.2.10.11:_ZN4PQoS16SetMaxFrameBytesEj
libpt.so.2.10.11:_ZN4PQoS17SetAvgBytesPerSecEj
libpt.so.2.10.11:_ZN4PQoS17SetWinServiceTypeEj
libpt.so.2.10.11:_ZN4PQoS18SetDSCPAlternativeEjm
libpt.so.2.10.11:_ZN4PQoS18SetPeakBytesPerSecEj
libpt.so.2.10.11:_ZN4PQoS7SetDSCPEi
libpt.so.2.10.11:_ZN4PQoSC1Ei
libpt.so.2.10.11:_ZN4PQoSC1Ejjijj
libpt.so.2.10.11:_ZN4PQoSC1Ev
libpt.so.2.10.11:_ZN4PQoSC2Ei
libpt.so.2.10.11:_ZN4PQoSC2Ejjijj
libpt.so.2.10.11:_ZN4PQoSC2Ev
libpt.so.2.10.11:_ZN4PURL10AppendPathERK7PString
libpt.so.2.10.11:_ZN4PURL10OutputVarsERSoRK15PStringToStringcccNS_15TranslationTypeE
libpt.so.2.10.11:_ZN4PURL10SetPathStrERK7PString
libpt.so.2.10.11:_ZN4PURL11LegacyParseERK7PStringPK16PURLLegacyScheme
libpt.so.2.10.11:_ZN4PURL11OpenBrowserERK7PString
libpt.so.2.10.11:_ZN4PURL11RecalculateEv
libpt.so.2.10.11:_ZN4PURL11SetContentsERK7PString
libpt.so.2.10.11:_ZN4PURL11SetHostNameERK7PString
libpt.so.2.10.11:_ZN4PURL11SetParamVarERK7PStringS2_b
libpt.so.2.10.11:_ZN4PURL11SetPasswordERK7PString
libpt.so.2.10.11:_ZN4PURL11SetQueryVarERK7PStringS2_
libpt.so.2.10.11:_ZN4PURL11SetUserNameERK7PString
libpt.so.2.10.11:_ZN4PURL12CopyContentsERKS_
libpt.so.2.10.11:_ZN4PURL12SetParamVarsERK15PStringToString
libpt.so.2.10.11:_ZN4PURL12SetQueryVarsERK15PStringToString
libpt.so.2.10.11:_ZN4PURL13InternalParseEPKcS1_
libpt.so.2.10.11:_ZN4PURL13SetParametersERK7PString
libpt.so.2.10.11:_ZN4PURL15TranslateStringERK7PStringNS_15TranslationTypeE
libpt.so.2.10.11:_ZN4PURL17UntranslateStringERK7PStringNS_15TranslationTypeE
libpt.so.2.10.11:_ZN4PURL7SetPathERK12PStringArray
libpt.so.2.10.11:_ZN4PURL7SetPortEt
libpt.so.2.10.11:_ZN4PURL8ReadFromERSi
libpt.so.2.10.11:_ZN4PURL8SetQueryERK7PString
libpt.so.2.10.11:_ZN4PURL9SetSchemeERK7PString
libpt.so.2.10.11:_ZN4PURL9SplitVarsERK7PStringR15PStringToStringccNS_15TranslationTypeE
libpt.so.2.10.11:_ZN4PURLC1EPKcS1_
libpt.so.2.10.11:_ZN4PURLC1ERK7PStringPKc
libpt.so.2.10.11:_ZN4PURLC1ERK9PFilePath
libpt.so.2.10.11:_ZN4PURLC1ERKS_
libpt.so.2.10.11:_ZN4PURLC1Ev
libpt.so.2.10.11:_ZN4PURLC2EPKcS1_
libpt.so.2.10.11:_ZN4PURLC2ERK7PStringPKc
libpt.so.2.10.11:_ZN4PURLC2ERK9PFilePath
libpt.so.2.10.11:_ZN4PURLC2ERKS_
libpt.so.2.10.11:_ZN4PURLC2Ev
libpt.so.2.10.11:_ZN4PURLaSERKS_
libpt.so.2.10.11:_ZN4PXML12CreateEndTagERK7PString
libpt.so.2.10.11:_ZN4PXML13RemoveElementEi
libpt.so.2.10.11:_ZN4PXML14CreateStartTagERK7PString
libpt.so.2.10.11:_ZN4PXML14SetRootElementEP11PXMLElement
libpt.so.2.10.11:_ZN4PXML14SetRootElementERK7PString
libpt.so.2.10.11:_ZN4PXML15CreateTagNoDataERK7PString
libpt.so.2.10.11:_ZN4PXML15LoadAndValidateERK7PStringPKNS_14ValidationInfoERS0_i
libpt.so.2.10.11:_ZN4PXML15ValidateElementERNS_17ValidationContextEP11PXMLElementPKNS_14ValidationInfoE
libpt.so.2.10.11:_ZN4PXML16ValidateElementsERNS_17ValidationContextEP11PXMLElementPKNS_14ValidationInfoE
libpt.so.2.10.11:_ZN4PXML18EscapeSpecialCharsERK7PString
libpt.so.2.10.11:_ZN4PXML4LoadERK7PStringN8PXMLBase7OptionsE
libpt.so.2.10.11:_ZN4PXML4SaveEN8PXMLBase7OptionsE
libpt.so.2.10.11:_ZN4PXML4SaveER7PStringN8PXMLBase7OptionsE
libpt.so.2.10.11:_ZN4PXML8LoadFileERK9PFilePathN8PXMLBase7OptionsE
libpt.so.2.10.11:_ZN4PXML8ReadFromERSi
libpt.so.2.10.11:_ZN4PXML8SaveFileERK9PFilePathN8PXMLBase7OptionsE
libpt.so.2.10.11:_ZN4PXML8ValidateEPKNS_14ValidationInfoE
libpt.so.2.10.11:_ZN4PXML9ConstructEiPKc
libpt.so.2.10.11:_ZN4PXML9CreateTagERK7PStringS2_
libpt.so.2.10.11:_ZN4PXML9RemoveAllEv
libpt.so.2.10.11:_ZN4PXMLC1ERK7PStringiPKc
libpt.so.2.10.11:_ZN4PXMLC1ERKS_
libpt.so.2.10.11:_ZN4PXMLC1EiPKc
libpt.so.2.10.11:_ZN4PXMLC2ERK7PStringiPKc
libpt.so.2.10.11:_ZN4PXMLC2ERKS_
libpt.so.2.10.11:_ZN4PXMLC2EiPKc
libpt.so.2.10.11:_ZN4PXMLD0Ev
libpt.so.2.10.11:_ZN4PXMLD1Ev
libpt.so.2.10.11:_ZN4PXMLD2Ev
libpt.so.2.10.11:_ZN5PFile11SetFilePathERK7PString
libpt.so.2.10.11:_ZN5PFile11SetPositionElNS_18FilePositionOriginE
libpt.so.2.10.11:_ZN5PFile14SetPermissionsERK9PFilePathi
libpt.so.2.10.11:_ZN5PFile14SetPermissionsEi
libpt.so.2.10.11:_ZN5PFile4CopyERK9PFilePathS2_b
libpt.so.2.10.11:_ZN5PFile4CopyERK9PFilePathb
libpt.so.2.10.11:_ZN5PFile4MoveERK9PFilePathS2_b
libpt.so.2.10.11:_ZN5PFile4OpenENS_8OpenModeEi
libpt.so.2.10.11:_ZN5PFile4OpenERK9PFilePathNS_8OpenModeEi
libpt.so.2.10.11:_ZN5PFile4ReadEPvi
libpt.so.2.10.11:_ZN5PFile5CloseEv
libpt.so.2.10.11:_ZN5PFile5WriteEPKvi
libpt.so.2.10.11:_ZN5PFile6AccessENS_8OpenModeE
libpt.so.2.10.11:_ZN5PFile6AccessERK9PFilePathNS_8OpenModeE
libpt.so.2.10.11:_ZN5PFile6ExistsERK9PFilePath
libpt.so.2.10.11:_ZN5PFile6RemoveERK7PStringb
libpt.so.2.10.11:_ZN5PFile6RemoveERK9PFilePathb
libpt.so.2.10.11:_ZN5PFile6RemoveEb
libpt.so.2.10.11:_ZN5PFile6RenameERK7PStringb
libpt.so.2.10.11:_ZN5PFile6RenameERK9PFilePathRK7PStringb
libpt.so.2.10.11:_ZN5PFile7GetInfoER9PFileInfo
libpt.so.2.10.11:_ZN5PFile7GetInfoERK9PFilePathR9PFileInfo
libpt.so.2.10.11:_ZN5PFile9SetLengthEl
libpt.so.2.10.11:_ZN5PFileC1ENS_8OpenModeEi
libpt.so.2.10.11:_ZN5PFileC1ERK9PFilePathNS_8OpenModeEi
libpt.so.2.10.11:_ZN5PFileC1Ev
libpt.so.2.10.11:_ZN5PFileC2ENS_8OpenModeEi
libpt.so.2.10.11:_ZN5PFileC2ERK9PFilePathNS_8OpenModeEi
libpt.so.2.10.11:_ZN5PFileC2Ev
libpt.so.2.10.11:_ZN5PFileD0Ev
libpt.so.2.10.11:_ZN5PFileD1Ev
libpt.so.2.10.11:_ZN5PFileD2Ev
libpt.so.2.10.11:_ZN5PHTML10BlockQuoteC1EPKc
libpt.so.2.10.11:_ZN5PHTML10BlockQuoteC2EPKc
libpt.so.2.10.11:_ZN5PHTML10BulletListC1EPKc
libpt.so.2.10.11:_ZN5PHTML10BulletListC2EPKc
libpt.so.2.10.11:_ZN5PHTML10InputFieldC1EPKcS2_NS_12DisableCodesES2_
libpt.so.2.10.11:_ZN5PHTML10InputFieldC2EPKcS2_NS_12DisableCodesES2_
libpt.so.2.10.11:_ZN5PHTML10InputImageC1EPKcS2_NS_12DisableCodesES2_
libpt.so.2.10.11:_ZN5PHTML10InputImageC1EPKcS2_S2_NS_12DisableCodesES2_
libpt.so.2.10.11:_ZN5PHTML10InputImageC2EPKcS2_NS_12DisableCodesES2_
libpt.so.2.10.11:_ZN5PHTML10InputImageC2EPKcS2_S2_NS_12DisableCodesES2_
libpt.so.2.10.11:_ZN5PHTML10InputRangeC1EPKciiiNS_12DisableCodesES2_
libpt.so.2.10.11:_ZN5PHTML10InputRangeC2EPKciiiNS_12DisableCodesES2_
libpt.so.2.10.11:_ZN5PHTML10SimpleListC1EPKc
libpt.so.2.10.11:_ZN5PHTML10SimpleListC2EPKc
libpt.so.2.10.11:_ZN5PHTML10TableStartC1ENS_11BorderCodesEPKc
libpt.so.2.10.11:_ZN5PHTML10TableStartC1EPKc
libpt.so.2.10.11:_ZN5PHTML10TableStartC2ENS_11BorderCodesEPKc
libpt.so.2.10.11:_ZN5PHTML10TableStartC2EPKc
libpt.so.2.10.11:_ZN5PHTML11HiddenFieldC1EPKcS2_S2_
libpt.so.2.10.11:_ZN5PHTML11HiddenFieldC2EPKcS2_S2_
libpt.so.2.10.11:_ZN5PHTML11InputNumber9ConstructEiii
libpt.so.2.10.11:_ZN5PHTML11InputNumberC1EPKcS2_iiiNS_12DisableCodesES2_
libpt.so.2.10.11:_ZN5PHTML11InputNumberC1EPKciiiNS_12DisableCodesES2_
libpt.so.2.10.11:_ZN5PHTML11InputNumberC2EPKcS2_iiiNS_12DisableCodesES2_
libpt.so.2.10.11:_ZN5PHTML11InputNumberC2EPKciiiNS_12DisableCodesES2_
libpt.so.2.10.11:_ZN5PHTML11ListHeadingC1EPKc
libpt.so.2.10.11:_ZN5PHTML11ListHeadingC2EPKc
libpt.so.2.10.11:_ZN5PHTML11OrderedListC1EiPKc
libpt.so.2.10.11:_ZN5PHTML11OrderedListC2EiPKc
libpt.so.2.10.11:_ZN5PHTML11RadioButtonC1EPKcS2_NS_12CheckedCodesENS_12DisableCodesES2_
libpt.so.2.10.11:_ZN5PHTML11RadioButtonC1EPKcS2_NS_12DisableCodesES2_
libpt.so.2.10.11:_ZN5PHTML11RadioButtonC1EPKcS2_S2_
libpt.so.2.10.11:_ZN5PHTML11RadioButtonC1EPKcS2_S2_NS_12CheckedCodesENS_12DisableCodesES2_
libpt.so.2.10.11:_ZN5PHTML11RadioButtonC2EPKcS2_NS_12CheckedCodesENS_12DisableCodesES2_
libpt.so.2.10.11:_ZN5PHTML11RadioButtonC2EPKcS2_NS_12DisableCodesES2_
libpt.so.2.10.11:_ZN5PHTML11RadioButtonC2EPKcS2_S2_
libpt.so.2.10.11:_ZN5PHTML11RadioButtonC2EPKcS2_S2_NS_12CheckedCodesENS_12DisableCodesES2_
libpt.so.2.10.11:_ZN5PHTML11ResetButtonC1EPKcS2_S2_NS_12DisableCodesES2_
libpt.so.2.10.11:_ZN5PHTML11ResetButtonC1EPKcS2_S2_S2_NS_12DisableCodesES2_
libpt.so.2.10.11:_ZN5PHTML11ResetButtonC2EPKcS2_S2_NS_12DisableCodesES2_
libpt.so.2.10.11:_ZN5PHTML11ResetButtonC2EPKcS2_S2_S2_NS_12DisableCodesES2_
libpt.so.2.10.11:_ZN5PHTML11TableHeaderC1EPKc
libpt.so.2.10.11:_ZN5PHTML11TableHeaderC2EPKc
libpt.so.2.10.11:_ZN5PHTML12FieldElementC1EPKcS2_NS_12ElementInSetENS_7Element12OptionalCRLFENS_12DisableCodesE
libpt.so.2.10.11:_ZN5PHTML12FieldElementC2EPKcS2_NS_12ElementInSetENS_7Element12OptionalCRLFENS_12DisableCodesE
libpt.so.2.10.11:_ZN5PHTML12ImageElementC1EPKcS2_NS_12ElementInSetES3_NS_7Element12OptionalCRLFES2_
libpt.so.2.10.11:_ZN5PHTML12ImageElementC2EPKcS2_NS_12ElementInSetES3_NS_7Element12OptionalCRLFES2_
libpt.so.2.10.11:_ZN5PHTML12SubmitButtonC1EPKcS2_S2_NS_12DisableCodesES2_
libpt.so.2.10.11:_ZN5PHTML12SubmitButtonC2EPKcS2_S2_NS_12DisableCodesES2_
libpt.so.2.10.11:_ZN5PHTML13InputPasswordC1EPKciNS_12DisableCodesES2_
libpt.so.2.10.11:_ZN5PHTML13InputPasswordC1EPKciS2_S2_
libpt.so.2.10.11:_ZN5PHTML13InputPasswordC1EPKciS2_iNS_12DisableCodesES2_
libpt.so.2.10.11:_ZN5PHTML13InputPasswordC1EPKciiNS_12DisableCodesES2_
libpt.so.2.10.11:_ZN5PHTML13InputPasswordC2EPKciNS_12DisableCodesES2_
libpt.so.2.10.11:_ZN5PHTML13InputPasswordC2EPKciS2_S2_
libpt.so.2.10.11:_ZN5PHTML13InputPasswordC2EPKciS2_iNS_12DisableCodesES2_
libpt.so.2.10.11:_ZN5PHTML13InputPasswordC2EPKciiNS_12DisableCodesES2_
libpt.so.2.10.11:_ZN5PHTML13InputScribbleC1EPKcS2_NS_12DisableCodesES2_
libpt.so.2.10.11:_ZN5PHTML13InputScribbleC2EPKcS2_NS_12DisableCodesES2_
libpt.so.2.10.11:_ZN5PHTML14AssignContentsERK10PContainer
libpt.so.2.10.11:_ZN5PHTML14DefinitionItemC1EPKc
libpt.so.2.10.11:_ZN5PHTML14DefinitionItemC2EPKc
libpt.so.2.10.11:_ZN5PHTML14DefinitionListC1EPKc
libpt.so.2.10.11:_ZN5PHTML14DefinitionListC2EPKc
libpt.so.2.10.11:_ZN5PHTML14DefinitionTermC1EPKc
libpt.so.2.10.11:_ZN5PHTML14DefinitionTermC2EPKc
libpt.so.2.10.11:_ZN5PHTML3ClrENS_12ElementInSetE
libpt.so.2.10.11:_ZN5PHTML3SetENS_12ElementInSetE
libpt.so.2.10.11:_ZN5PHTML3TabC1EPKcS2_
libpt.so.2.10.11:_ZN5PHTML3TabC1EiPKc
libpt.so.2.10.11:_ZN5PHTML3TabC2EPKcS2_
libpt.so.2.10.11:_ZN5PHTML3TabC2EiPKc
libpt.so.2.10.11:_ZN5PHTML4BodyC1EPKc
libpt.so.2.10.11:_ZN5PHTML4BodyC2EPKc
libpt.so.2.10.11:_ZN5PHTML4FormC1EPKcS2_S2_S2_
libpt.so.2.10.11:_ZN5PHTML4FormC2EPKcS2_S2_S2_
libpt.so.2.10.11:_ZN5PHTML4HTMLC1EPKc
libpt.so.2.10.11:_ZN5PHTML4HTMLC2EPKc
libpt.so.2.10.11:_ZN5PHTML4HeadC1Ev
libpt.so.2.10.11:_ZN5PHTML4HeadC2Ev
libpt.so.2.10.11:_ZN5PHTML4NoteC1EPKcS2_
libpt.so.2.10.11:_ZN5PHTML4NoteC2EPKcS2_
libpt.so.2.10.11:_ZN5PHTML5HRuleC1EPKcS2_
libpt.so.2.10.11:_ZN5PHTML5HRuleC2EPKcS2_
libpt.so.2.10.11:_ZN5PHTML5ImageC1EPKcS2_iiS2_
libpt.so.2.10.11:_ZN5PHTML5ImageC1EPKciiS2_
libpt.so.2.10.11:_ZN5PHTML5ImageC2EPKcS2_iiS2_
libpt.so.2.10.11:_ZN5PHTML5ImageC2EPKciiS2_
libpt.so.2.10.11:_ZN5PHTML5TitleC1EPKc
libpt.so.2.10.11:_ZN5PHTML5TitleC1ERK7PString
libpt.so.2.10.11:_ZN5PHTML5TitleC1Ev
libpt.so.2.10.11:_ZN5PHTML5TitleC2EPKc
libpt.so.2.10.11:_ZN5PHTML5TitleC2ERK7PString
libpt.so.2.10.11:_ZN5PHTML5TitleC2Ev
libpt.so.2.10.11:_ZN5PHTML6BannerC1EPKc
libpt.so.2.10.11:_ZN5PHTML6BannerC2EPKc
libpt.so.2.10.11:_ZN5PHTML6CreditC1EPKc
libpt.so.2.10.11:_ZN5PHTML6CreditC2EPKc
libpt.so.2.10.11:_ZN5PHTML6OptionC1ENS_12DisableCodesEPKc
libpt.so.2.10.11:_ZN5PHTML6OptionC1ENS_14SelectionCodesENS_12DisableCodesEPKc
libpt.so.2.10.11:_ZN5PHTML6OptionC1ENS_14SelectionCodesEPKc
libpt.so.2.10.11:_ZN5PHTML6OptionC1EPKc
libpt.so.2.10.11:_ZN5PHTML6OptionC2ENS_12DisableCodesEPKc
libpt.so.2.10.11:_ZN5PHTML6OptionC2ENS_14SelectionCodesENS_12DisableCodesEPKc
libpt.so.2.10.11:_ZN5PHTML6OptionC2ENS_14SelectionCodesEPKc
libpt.so.2.10.11:_ZN5PHTML6OptionC2EPKc
libpt.so.2.10.11:_ZN5PHTML6SelectC1EPKcNS_12DisableCodesES2_
libpt.so.2.10.11:_ZN5PHTML6SelectC1EPKcS2_
libpt.so.2.10.11:_ZN5PHTML6SelectC2EPKcNS_12DisableCodesES2_
libpt.so.2.10.11:_ZN5PHTML6SelectC2EPKcS2_
libpt.so.2.10.11:_ZN5PHTML6SetTabC1EPKcS2_
libpt.so.2.10.11:_ZN5PHTML6SetTabC2EPKcS2_
libpt.so.2.10.11:_ZN5PHTML6TargetC1EPKcS2_
libpt.so.2.10.11:_ZN5PHTML6TargetC2EPKcS2_
libpt.so.2.10.11:_ZN5PHTML6ToggleENS_12ElementInSetE
libpt.so.2.10.11:_ZN5PHTML7AddressC1EPKc
libpt.so.2.10.11:_ZN5PHTML7AddressC2EPKc
libpt.so.2.10.11:_ZN5PHTML7HeadingC1EiPKciiS2_
libpt.so.2.10.11:_ZN5PHTML7HeadingC1EiRK7PStringiiPKc
libpt.so.2.10.11:_ZN5PHTML7HeadingC1EiiiPKc
libpt.so.2.10.11:_ZN5PHTML7HeadingC2EiPKciiS2_
libpt.so.2.10.11:_ZN5PHTML7HeadingC2EiRK7PStringiiPKc
libpt.so.2.10.11:_ZN5PHTML7HeadingC2EiiiPKc
libpt.so.2.10.11:_ZN5PHTML7HotLinkC1EPKcS2_
libpt.so.2.10.11:_ZN5PHTML7HotLinkC2EPKcS2_
libpt.so.2.10.11:_ZN5PHTML8CheckBoxC1EPKcNS_12CheckedCodesENS_12DisableCodesES2_
libpt.so.2.10.11:_ZN5PHTML8CheckBoxC1EPKcNS_12DisableCodesES2_
libpt.so.2.10.11:_ZN5PHTML8CheckBoxC1EPKcS2_
libpt.so.2.10.11:_ZN5PHTML8CheckBoxC2EPKcNS_12CheckedCodesENS_12DisableCodesES2_
libpt.so.2.10.11:_ZN5PHTML8CheckBoxC2EPKcNS_12DisableCodesES2_
libpt.so.2.10.11:_ZN5PHTML8CheckBoxC2EPKcS2_
libpt.so.2.10.11:_ZN5PHTML8DivisionC1EPKc
libpt.so.2.10.11:_ZN5PHTML8DivisionC2EPKc
libpt.so.2.10.11:_ZN5PHTML8ListItemC1EiPKc
libpt.so.2.10.11:_ZN5PHTML8ListItemC2EiPKc
libpt.so.2.10.11:_ZN5PHTML8TableEndC1Ev
libpt.so.2.10.11:_ZN5PHTML8TableEndC2Ev
libpt.so.2.10.11:_ZN5PHTML8TableRowC1EPKc
libpt.so.2.10.11:_ZN5PHTML8TableRowC2EPKc
libpt.so.2.10.11:_ZN5PHTML8TextAreaC1EPKcNS_12DisableCodesES2_
libpt.so.2.10.11:_ZN5PHTML8TextAreaC1EPKciiNS_12DisableCodesES2_
libpt.so.2.10.11:_ZN5PHTML8TextAreaC2EPKcNS_12DisableCodesES2_
libpt.so.2.10.11:_ZN5PHTML8TextAreaC2EPKciiNS_12DisableCodesES2_
libpt.so.2.10.11:_ZN5PHTML9BreakLineC1EPKc
libpt.so.2.10.11:_ZN5PHTML9BreakLineC2EPKc
libpt.so.2.10.11:_ZN5PHTML9FormFieldC1EPKcS2_NS_12ElementInSetENS_7Element12OptionalCRLFENS_12DisableCodesES2_
libpt.so.2.10.11:_ZN5PHTML9FormFieldC2EPKcS2_NS_12ElementInSetENS_7Element12OptionalCRLFENS_12DisableCodesES2_
libpt.so.2.10.11:_ZN5PHTML9InputFileC1EPKcS2_NS_12DisableCodesES2_
libpt.so.2.10.11:_ZN5PHTML9InputFileC2EPKcS2_NS_12DisableCodesES2_
libpt.so.2.10.11:_ZN5PHTML9InputTextC1EPKcS2_iS2_iNS_12DisableCodesES2_
libpt.so.2.10.11:_ZN5PHTML9InputTextC1EPKciNS_12DisableCodesES2_
libpt.so.2.10.11:_ZN5PHTML9InputTextC1EPKciS2_S2_
libpt.so.2.10.11:_ZN5PHTML9InputTextC1EPKciS2_iNS_12DisableCodesES2_
libpt.so.2.10.11:_ZN5PHTML9InputTextC1EPKciiNS_12DisableCodesES2_
libpt.so.2.10.11:_ZN5PHTML9InputTextC2EPKcS2_iS2_iNS_12DisableCodesES2_
libpt.so.2.10.11:_ZN5PHTML9InputTextC2EPKciNS_12DisableCodesES2_
libpt.so.2.10.11:_ZN5PHTML9InputTextC2EPKciS2_S2_
libpt.so.2.10.11:_ZN5PHTML9InputTextC2EPKciS2_iNS_12DisableCodesES2_
libpt.so.2.10.11:_ZN5PHTML9InputTextC2EPKciiNS_12DisableCodesES2_
libpt.so.2.10.11:_ZN5PHTML9ParagraphC1EPKc
libpt.so.2.10.11:_ZN5PHTML9ParagraphC2EPKc
libpt.so.2.10.11:_ZN5PHTML9PreFormatC1EiPKc
libpt.so.2.10.11:_ZN5PHTML9PreFormatC2EiPKc
libpt.so.2.10.11:_ZN5PHTML9TableDataC1EPKc
libpt.so.2.10.11:_ZN5PHTML9TableDataC2EPKc
libpt.so.2.10.11:_ZN5PHTMLC1ENS_12ElementInSetE
libpt.so.2.10.11:_ZN5PHTMLC1EPKc
libpt.so.2.10.11:_ZN5PHTMLC1ERK7PString
libpt.so.2.10.11:_ZN5PHTMLC2ENS_12ElementInSetE
libpt.so.2.10.11:_ZN5PHTMLC2EPKc
libpt.so.2.10.11:_ZN5PHTMLC2ERK7PString
libpt.so.2.10.11:_ZN5PHTMLD0Ev
libpt.so.2.10.11:_ZN5PHTMLD1Ev
libpt.so.2.10.11:_ZN5PHTMLD2Ev
libpt.so.2.10.11:_ZN5PHTTP10ChunkedTagEv
libpt.so.2.10.11:_ZN5PHTTP10ExpiresTagEv
libpt.so.2.10.11:_ZN5PHTTP10RefererTagEv
libpt.so.2.10.11:_ZN5PHTTP11LocationTagEv
libpt.so.2.10.11:_ZN5PHTTP12ForwardedTagEv
libpt.so.2.10.11:_ZN5PHTTP12KeepAliveTagEv
libpt.so.2.10.11:_ZN5PHTTP12SetCookieTagEv
libpt.so.2.10.11:_ZN5PHTTP12UserAgentTagEv
libpt.so.2.10.11:_ZN5PHTTP13ConnectionTagEv
libpt.so.2.10.11:_ZN5PHTTP13ParseResponseERK7PString
libpt.so.2.10.11:_ZN5PHTTP14MIMEVersionTagEv
libpt.so.2.10.11:_ZN5PHTTP15LastModifiedTagEv
libpt.so.2.10.11:_ZN5PHTTP16AuthorizationTagEv
libpt.so.2.10.11:_ZN5PHTTP16ContentLengthTagEv
libpt.so.2.10.11:_ZN5PHTTP16PragmaNoCacheTagEv
libpt.so.2.10.11:_ZN5PHTTP18ContentEncodingTagEv
libpt.so.2.10.11:_ZN5PHTTP18IfModifiedSinceTagEv
libpt.so.2.10.11:_ZN5PHTTP18ProxyConnectionTagEv
libpt.so.2.10.11:_ZN5PHTTP18WWWAuthenticateTagEv
libpt.so.2.10.11:_ZN5PHTTP19TransferEncodingTagEv
libpt.so.2.10.11:_ZN5PHTTP20ProxyAuthenticateTagEv
libpt.so.2.10.11:_ZN5PHTTP21ProxyAuthorizationTagEv
libpt.so.2.10.11:_ZN5PHTTP7DateTagEv
libpt.so.2.10.11:_ZN5PHTTP7FromTagEv
libpt.so.2.10.11:_ZN5PHTTP8AllowTagEv
libpt.so.2.10.11:_ZN5PHTTP9CookieTagEv
libpt.so.2.10.11:_ZN5PHTTP9PragmaTagEv
libpt.so.2.10.11:_ZN5PHTTP9ServerTagEv
libpt.so.2.10.11:_ZN5PHTTPC1Ev
libpt.so.2.10.11:_ZN5PHTTPC2Ev
libpt.so.2.10.11:_ZN5PPOP310okResponseEv
libpt.so.2.10.11:_ZN5PPOP311errResponseEv
libpt.so.2.10.11:_ZN5PPOP313ParseResponseERK7PString
libpt.so.2.10.11:_ZN5PPOP3C1Ev
libpt.so.2.10.11:_ZN5PPOP3C2Ev
libpt.so.2.10.11:_ZN5PSMTPC1Ev
libpt.so.2.10.11:_ZN5PSMTPC2Ev
libpt.so.2.10.11:_ZN5PSNMP12GetErrorTextENS_9ErrorTypeE
libpt.so.2.10.11:_ZN5PSNMP15GetTrapTypeTextEi
libpt.so.2.10.11:_ZN5PSNMP18SendEnterpriseTrapERKN9PIPSocket7AddressERK7PStringS6_ijRK19PSNMPVarBindingListt
libpt.so.2.10.11:_ZN5PSNMP18SendEnterpriseTrapERKN9PIPSocket7AddressERK7PStringS6_ijt
libpt.so.2.10.11:_ZN5PSNMP8SendTrapERKN9PIPSocket7AddressENS_8TrapTypeERK7PStringS7_ijRK19PSNMPVarBindingListS3_t
libpt.so.2.10.11:_ZN5PSNMP8SendTrapERKN9PIPSocket7AddressENS_8TrapTypeERK7PStringS7_ijRK19PSNMPVarBindingListt
libpt.so.2.10.11:_ZN5PSNMP9WriteTrapER8PChannelNS_8TrapTypeERK7PStringS5_ijRK19PSNMPVarBindingListRKN9PIPSocket7AddressE
libpt.so.2.10.11:_ZN5PTime10GetDayNameENS_8WeekdaysENS_8NameTypeE
libpt.so.2.10.11:_ZN5PTime11GetTimeAMPMEv
libpt.so.2.10.11:_ZN5PTime11GetTimeZoneENS_12TimeZoneTypeE
libpt.so.2.10.11:_ZN5PTime11GetTimeZoneEv
libpt.so.2.10.11:_ZN5PTime12GetDateOrderEv
libpt.so.2.10.11:_ZN5PTime12GetMonthNameENS_6MonthsENS_8NameTypeE
libpt.so.2.10.11:_ZN5PTime12SetTimestampEll
libpt.so.2.10.11:_ZN5PTime12os_localtimeEPKlP2tm
libpt.so.2.10.11:_ZN5PTime14SetCurrentTimeEv
libpt.so.2.10.11:_ZN5PTime16GetDateSeparatorEv
libpt.so.2.10.11:_ZN5PTime16GetTimeSeparatorEv
libpt.so.2.10.11:_ZN5PTime17GetTimeZoneStringENS_12TimeZoneTypeE
libpt.so.2.10.11:_ZN5PTime17IsDaylightSavingsEv
libpt.so.2.10.11:_ZN5PTime5ParseERK7PString
libpt.so.2.10.11:_ZN5PTime8ReadFromERSi
libpt.so.2.10.11:_ZN5PTime9GetTimeAMEv
libpt.so.2.10.11:_ZN5PTime9GetTimePMEv
libpt.so.2.10.11:_ZN5PTime9os_gmtimeEPKlP2tm
libpt.so.2.10.11:_ZN5PTimeC1ERK7PString
libpt.so.2.10.11:_ZN5PTimeC1Eiiiiiii
libpt.so.2.10.11:_ZN5PTimeC2ERK7PString
libpt.so.2.10.11:_ZN5PTimeC2Eiiiiiii
libpt.so.2.10.11:_ZN5PTimemIERK13PTimeInterval
libpt.so.2.10.11:_ZN5PTimepLERK13PTimeInterval
libpt.so.2.10.11:_ZN6PModem10InitialiseEv
libpt.so.2.10.11:_ZN6PModem12DeinitialiseEv
libpt.so.2.10.11:_ZN6PModem12SaveSettingsER7PConfig
libpt.so.2.10.11:_ZN6PModem13SetBusyStringERK7PString
libpt.so.2.10.11:_ZN6PModem13SetInitStringERK7PString
libpt.so.2.10.11:_ZN6PModem15SetDeinitStringERK7PString
libpt.so.2.10.11:_ZN6PModem15SetHangUpStringERK7PString
libpt.so.2.10.11:_ZN6PModem16SetConnectStringERK7PString
libpt.so.2.10.11:_ZN6PModem16SetPreDialStringERK7PString
libpt.so.2.10.11:_ZN6PModem17SetPostDialStringERK7PString
libpt.so.2.10.11:_ZN6PModem18SetNoCarrierStringERK7PString
libpt.so.2.10.11:_ZN6PModem4DialERK7PString
libpt.so.2.10.11:_ZN6PModem4OpenER7PConfig
libpt.so.2.10.11:_ZN6PModem4OpenERK7PStringjhN14PSerialChannel6ParityEhNS3_11FlowControlES5_
libpt.so.2.10.11:_ZN6PModem5AbortEv
libpt.so.2.10.11:_ZN6PModem5CloseEv
libpt.so.2.10.11:_ZN6PModem6HangUpEv
libpt.so.2.10.11:_ZN6PModem8SendUserERK7PString
libpt.so.2.10.11:_ZN6PModemC1ER7PConfig
libpt.so.2.10.11:_ZN6PModemC1ERK7PStringjhN14PSerialChannel6ParityEhNS3_11FlowControlES5_
libpt.so.2.10.11:_ZN6PModemC1Ev
libpt.so.2.10.11:_ZN6PModemC2ER7PConfig
libpt.so.2.10.11:_ZN6PModemC2ERK7PStringjhN14PSerialChannel6ParityEhNS3_11FlowControlES5_
libpt.so.2.10.11:_ZN6PModemC2Ev
libpt.so.2.10.11:_ZN6PSound4LoadERK9PFilePath
libpt.so.2.10.11:_ZN6PSound4PlayERK7PString
libpt.so.2.10.11:_ZN6PSound4PlayEv
libpt.so.2.10.11:_ZN6PSound4SaveERK9PFilePath
libpt.so.2.10.11:_ZN6PSound8PlayFileERK9PFilePathb
libpt.so.2.10.11:_ZN6PSound9SetFormatEjjj
libpt.so.2.10.11:_ZN6PSoundC1ERK9PFilePath
libpt.so.2.10.11:_ZN6PSoundC1EjjjiPKh
libpt.so.2.10.11:_ZN6PSoundC2ERK9PFilePath
libpt.so.2.10.11:_ZN6PSoundC2EjjjiPKh
libpt.so.2.10.11:_ZN6PSoundaSERK10PBYTEArray
libpt.so.2.10.11:_ZN6PTimer10ResolutionEv
libpt.so.2.10.11:_ZN6PTimer11SetIntervalExllli
libpt.so.2.10.11:_ZN6PTimer11SetNotifierERK17PNotifierTemplateIlE
libpt.so.2.10.11:_ZN6PTimer12StartRunningEb
libpt.so.2.10.11:_ZN6PTimer13RunContinuousERK13PTimeInterval
libpt.so.2.10.11:_ZN6PTimer4StopEb
libpt.so.2.10.11:_ZN6PTimer4TickEv
libpt.so.2.10.11:_ZN6PTimer5PauseEv
libpt.so.2.10.11:_ZN6PTimer5ResetEv
libpt.so.2.10.11:_ZN6PTimer6ResumeEv
libpt.so.2.10.11:_ZN6PTimer7ProcessEx
libpt.so.2.10.11:_ZN6PTimer9ConstructEv
libpt.so.2.10.11:_ZN6PTimer9OnTimeoutEv
libpt.so.2.10.11:_ZN6PTimerC1ERK13PTimeInterval
libpt.so.2.10.11:_ZN6PTimerC1ERKS_
libpt.so.2.10.11:_ZN6PTimerC1Eliiii
libpt.so.2.10.11:_ZN6PTimerC2ERK13PTimeInterval
libpt.so.2.10.11:_ZN6PTimerC2ERKS_
libpt.so.2.10.11:_ZN6PTimerC2Eliiii
libpt.so.2.10.11:_ZN6PTimerD0Ev
libpt.so.2.10.11:_ZN6PTimerD1Ev
libpt.so.2.10.11:_ZN6PTimerD2Ev
libpt.so.2.10.11:_ZN6PTimeraSERK13PTimeInterval
libpt.so.2.10.11:_ZN6PTimeraSERKS_
libpt.so.2.10.11:_ZN6PTimeraSEj
libpt.so.2.10.11:_ZN6PTones11CalcSamplesEjjj
libpt.so.2.10.11:_ZN6PTones7SilenceEj
libpt.so.2.10.11:_ZN6PTones8GenerateERK7PString
libpt.so.2.10.11:_ZN6PTones8GenerateEcjjjj
libpt.so.2.10.11:_ZN6PTones8ModulateEjjjj
libpt.so.2.10.11:_ZN6PTones8PureToneEjjj
libpt.so.2.10.11:_ZN6PTones9AddSampleEij
libpt.so.2.10.11:_ZN6PTones9ConstructEv
libpt.so.2.10.11:_ZN6PTones9JuxtaposeEjjjj
libpt.so.2.10.11:_ZN6PTonesC1ERK7PStringjj
libpt.so.2.10.11:_ZN6PTonesC1Ejj
libpt.so.2.10.11:_ZN6PTonesC2ERK7PStringjj
libpt.so.2.10.11:_ZN6PTonesC2Ejj
libpt.so.2.10.11:_ZN6PTrace10GetOptionsEv
libpt.so.2.10.11:_ZN6PTrace10InitialiseEjPKcS1_j
libpt.so.2.10.11:_ZN6PTrace10InitialiseEjPKcj
libpt.so.2.10.11:_ZN6PTrace10SetOptionsEj
libpt.so.2.10.11:_ZN6PTrace12ClearOptionsEj
libpt.so.2.10.11:_ZN6PTrace3EndERSo
libpt.so.2.10.11:_ZN6PTrace5BeginEjPKci
libpt.so.2.10.11:_ZN6PTrace5BlockC1EPKciS2_
libpt.so.2.10.11:_ZN6PTrace5BlockC2EPKciS2_
libpt.so.2.10.11:_ZN6PTrace5BlockD1Ev
libpt.so.2.10.11:_ZN6PTrace5BlockD2Ev
libpt.so.2.10.11:_ZN6PTrace7CleanupEv
libpt.so.2.10.11:_ZN6PTrace8CanTraceEj
libpt.so.2.10.11:_ZN6PTrace8GetLevelEv
libpt.so.2.10.11:_ZN6PTrace8SetLevelEj
libpt.so.2.10.11:_ZN6PTrace9SetStreamEPSo
libpt.so.2.10.11:_ZN6PvCard10MultiValue8SetTypesERKSt3mapINS_5TokenENS_11ParamValuesESt4lessIS2_ESaISt4pairIKS2_S3_EEE
libpt.so.2.10.11:_ZN6PvCard10ParamValue8ReadFromERSi
libpt.so.2.10.11:_ZN6PvCard10TextValues8ReadFromERSi
libpt.so.2.10.11:_ZN6PvCard11InlineValue13ReadFromParamERKSt3mapINS_5TokenENS_11ParamValuesESt4lessIS2_ESaISt4pairIKS2_S3_EEE
libpt.so.2.10.11:_ZN6PvCard11InlineValue8ReadFromERSi
libpt.so.2.10.11:_ZN6PvCard11ParamValues8ReadFromERSi
libpt.so.2.10.11:_ZN6PvCard5ParseERK7PString
libpt.so.2.10.11:_ZN6PvCard5Token8ReadFromERSi
libpt.so.2.10.11:_ZN6PvCard5Token8ValidateEv
libpt.so.2.10.11:_ZN6PvCard7Address8ReadFromERSi
libpt.so.2.10.11:_ZN6PvCard8AsStringENS_6FormatE
libpt.so.2.10.11:_ZN6PvCard8ReadFromERSi
libpt.so.2.10.11:_ZN6PvCard8URIValue8ReadFromERSi
libpt.so.2.10.11:_ZN6PvCard9Separator8ReadFromERSi
libpt.so.2.10.11:_ZN6PvCard9TextValue8ReadFromERSi
libpt.so.2.10.11:_ZN6PvCardC1Ev
libpt.so.2.10.11:_ZN6PvCardC2Ev
libpt.so.2.10.11:_ZN7PBase6412OutputBase64EPKh
libpt.so.2.10.11:_ZN7PBase6413StartDecodingEv
libpt.so.2.10.11:_ZN7PBase6413StartEncodingEPKc
libpt.so.2.10.11:_ZN7PBase6413StartEncodingEb
libpt.so.2.10.11:_ZN7PBase6414GetDecodedDataEPvi
libpt.so.2.10.11:_ZN7PBase6414GetDecodedDataEv
libpt.so.2.10.11:_ZN7PBase6415ProcessDecodingEPKc
libpt.so.2.10.11:_ZN7PBase6415ProcessDecodingERK7PString
libpt.so.2.10.11:_ZN7PBase6415ProcessEncodingEPKc
libpt.so.2.10.11:_ZN7PBase6415ProcessEncodingEPKvi
libpt.so.2.10.11:_ZN7PBase6415ProcessEncodingERK10PBYTEArray
libpt.so.2.10.11:_ZN7PBase6415ProcessEncodingERK7PString
libpt.so.2.10.11:_ZN7PBase6416CompleteEncodingEv
libpt.so.2.10.11:_ZN7PBase6416GetEncodedStringEv
libpt.so.2.10.11:_ZN7PBase646DecodeERK7PString
libpt.so.2.10.11:_ZN7PBase646DecodeERK7PStringPvi
libpt.so.2.10.11:_ZN7PBase646DecodeERK7PStringR10PBYTEArray
libpt.so.2.10.11:_ZN7PBase646EncodeEPKcS1_
libpt.so.2.10.11:_ZN7PBase646EncodeEPKviPKc
libpt.so.2.10.11:_ZN7PBase646EncodeERK10PBYTEArrayPKc
libpt.so.2.10.11:_ZN7PBase646EncodeERK7PStringPKc
libpt.so.2.10.11:_ZN7PBase64C1Ev
libpt.so.2.10.11:_ZN7PBase64C2Ev
libpt.so.2.10.11:_ZN7PConfig10SetBooleanERK7PStringS2_b
libpt.so.2.10.11:_ZN7PConfig10SetBooleanERK7PStringb
libpt.so.2.10.11:_ZN7PConfig10SetIntegerERK7PStringS2_l
libpt.so.2.10.11:_ZN7PConfig10SetIntegerERK7PStringl
libpt.so.2.10.11:_ZN7PConfig13DeleteSectionERK7PString
libpt.so.2.10.11:_ZN7PConfig13DeleteSectionEv
libpt.so.2.10.11:_ZN7PConfig17SetDefaultSectionERK7PString
libpt.so.2.10.11:_ZN7PConfig7SetRealERK7PStringS2_d
libpt.so.2.10.11:_ZN7PConfig7SetRealERK7PStringd
libpt.so.2.10.11:_ZN7PConfig7SetTimeERK7PStringRK5PTime
libpt.so.2.10.11:_ZN7PConfig7SetTimeERK7PStringS2_RK5PTime
libpt.so.2.10.11:_ZN7PConfig8SetInt64ERK7PStringS2_x
libpt.so.2.10.11:_ZN7PConfig8SetInt64ERK7PStringx
libpt.so.2.10.11:_ZN7PConfig9ConstructENS_6SourceERK7PStringS3_
libpt.so.2.10.11:_ZN7PConfig9ConstructERK9PFilePath
libpt.so.2.10.11:_ZN7PConfig9DeleteKeyERK7PString
libpt.so.2.10.11:_ZN7PConfig9DeleteKeyERK7PStringS2_
libpt.so.2.10.11:_ZN7PConfig9SetStringERK7PStringS2_
libpt.so.2.10.11:_ZN7PConfig9SetStringERK7PStringS2_S2_
libpt.so.2.10.11:_ZN7PConfigC1ENS_6SourceE
libpt.so.2.10.11:_ZN7PConfigC1ENS_6SourceERK7PString
libpt.so.2.10.11:_ZN7PConfigC1ENS_6SourceERK7PStringS3_
libpt.so.2.10.11:_ZN7PConfigC1ERK7PStringNS_6SourceE
libpt.so.2.10.11:_ZN7PConfigC1ERK7PStringNS_6SourceES2_
libpt.so.2.10.11:_ZN7PConfigC1ERK7PStringNS_6SourceES2_S2_
libpt.so.2.10.11:_ZN7PConfigC1ERK9PFilePathRK7PString
libpt.so.2.10.11:_ZN7PConfigC1EiRK7PString
libpt.so.2.10.11:_ZN7PConfigC2ENS_6SourceE
libpt.so.2.10.11:_ZN7PConfigC2ENS_6SourceERK7PString
libpt.so.2.10.11:_ZN7PConfigC2ENS_6SourceERK7PStringS3_
libpt.so.2.10.11:_ZN7PConfigC2ERK7PStringNS_6SourceE
libpt.so.2.10.11:_ZN7PConfigC2ERK7PStringNS_6SourceES2_
libpt.so.2.10.11:_ZN7PConfigC2ERK7PStringNS_6SourceES2_S2_
libpt.so.2.10.11:_ZN7PConfigC2ERK9PFilePathRK7PString
libpt.so.2.10.11:_ZN7PConfigC2EiRK7PString
libpt.so.2.10.11:_ZN7PConfigD0Ev
libpt.so.2.10.11:_ZN7PConfigD1Ev
libpt.so.2.10.11:_ZN7PConfigD2Ev
libpt.so.2.10.11:_ZN7PCypher6DecodeERK10PBYTEArrayPvi
libpt.so.2.10.11:_ZN7PCypher6DecodeERK10PBYTEArrayRS0_
libpt.so.2.10.11:_ZN7PCypher6DecodeERK7PString
libpt.so.2.10.11:_ZN7PCypher6DecodeERK7PStringPvi
libpt.so.2.10.11:_ZN7PCypher6DecodeERK7PStringR10PBYTEArray
libpt.so.2.10.11:_ZN7PCypher6DecodeERK7PStringRS0_
libpt.so.2.10.11:_ZN7PCypher6EncodeEPKvi
libpt.so.2.10.11:_ZN7PCypher6EncodeEPKviR10PBYTEArray
libpt.so.2.10.11:_ZN7PCypher6EncodeERK10PBYTEArray
libpt.so.2.10.11:_ZN7PCypher6EncodeERK10PBYTEArrayRS0_
libpt.so.2.10.11:_ZN7PCypher6EncodeERK7PString
libpt.so.2.10.11:_ZN7PCypherC1EPKviiNS_14BlockChainModeE
libpt.so.2.10.11:_ZN7PCypherC1EiNS_14BlockChainModeE
libpt.so.2.10.11:_ZN7PCypherC2EPKviiNS_14BlockChainModeE
libpt.so.2.10.11:_ZN7PCypherC2EiNS_14BlockChainModeE
libpt.so.2.10.11:_ZN7PObject33InternalCompareObjectMemoryDirectEPKS_S1_i
libpt.so.2.10.11:_ZN7PObject8ReadFromERSi
libpt.so.2.10.11:_ZN7PRandom6NumberEj
libpt.so.2.10.11:_ZN7PRandom6NumberEjj
libpt.so.2.10.11:_ZN7PRandom6NumberEv
libpt.so.2.10.11:_ZN7PRandom7SetSeedEj
libpt.so.2.10.11:_ZN7PRandom8GenerateEj
libpt.so.2.10.11:_ZN7PRandom8GenerateEjj
libpt.so.2.10.11:_ZN7PRandom8GenerateEv
libpt.so.2.10.11:_ZN7PRandomC1Ej
libpt.so.2.10.11:_ZN7PRandomC1Ev
libpt.so.2.10.11:_ZN7PRandomC2Ej
libpt.so.2.10.11:_ZN7PRandomC2Ev
libpt.so.2.10.11:_ZN7PSocket10os_connectEP8sockaddri
libpt.so.2.10.11:_ZN7PSocket11os_recvfromEPviiP8sockaddrPi
libpt.so.2.10.11:_ZN7PSocket16GetPortByServiceEPKcRK7PString
libpt.so.2.10.11:_ZN7PSocket16GetServiceByPortEPKct
libpt.so.2.10.11:_ZN7PSocket17GetNameByProtocolEt
libpt.so.2.10.11:_ZN7PSocket17GetProtocolByNameERK7PString
libpt.so.2.10.11:_ZN7PSocket4ReadEPvi
libpt.so.2.10.11:_ZN7PSocket6AcceptERS_
libpt.so.2.10.11:_ZN7PSocket6ListenEjtNS_11ReusabilityE
libpt.so.2.10.11:_ZN7PSocket6SelectERNS_10SelectListE
libpt.so.2.10.11:_ZN7PSocket6SelectERNS_10SelectListERK13PTimeInterval
libpt.so.2.10.11:_ZN7PSocket6SelectERNS_10SelectListES1_
libpt.so.2.10.11:_ZN7PSocket6SelectERNS_10SelectListES1_RK13PTimeInterval
libpt.so.2.10.11:_ZN7PSocket6SelectERNS_10SelectListES1_S1_
libpt.so.2.10.11:_ZN7PSocket6SelectERNS_10SelectListES1_S1_RK13PTimeInterval
libpt.so.2.10.11:_ZN7PSocket6SelectERS_S0_
libpt.so.2.10.11:_ZN7PSocket6SelectERS_S0_RK13PTimeInterval
libpt.so.2.10.11:_ZN7PSocket7ConnectERK7PString
libpt.so.2.10.11:_ZN7PSocket7SetPortERK7PString
libpt.so.2.10.11:_ZN7PSocket7SetPortEt
libpt.so.2.10.11:_ZN7PSocket8ShutdownEN8PChannel13ShutdownValueE
libpt.so.2.10.11:_ZN7PSocket8os_closeEv
libpt.so.2.10.11:_ZN7PSocket9GetOptionEiPvii
libpt.so.2.10.11:_ZN7PSocket9GetOptionEiRii
libpt.so.2.10.11:_ZN7PSocket9SetOptionEiPKvii
libpt.so.2.10.11:_ZN7PSocket9SetOptionEiii
libpt.so.2.10.11:_ZN7PSocket9os_acceptERS_P8sockaddrPi
libpt.so.2.10.11:_ZN7PSocket9os_sendtoEPKviiP8sockaddri
libpt.so.2.10.11:_ZN7PSocket9os_socketEiii
libpt.so.2.10.11:_ZN7PSocketC1Ev
libpt.so.2.10.11:_ZN7PSocketC2Ev
libpt.so.2.10.11:_ZN7PSocketD0Ev
libpt.so.2.10.11:_ZN7PSocketD1Ev
libpt.so.2.10.11:_ZN7PSocketD2Ev
libpt.so.2.10.11:_ZN7PString10MakeUniqueEv
libpt.so.2.10.11:_ZN7PString15MakeMinimumSizeEv
libpt.so.2.10.11:_ZN7PString16InternalFromUCS2EPKwi
libpt.so.2.10.11:_ZN7PString5EmptyEv
libpt.so.2.10.11:_ZN7PString6DeleteEii
libpt.so.2.10.11:_ZN7PString6SpliceEPKcii
libpt.so.2.10.11:_ZN7PString6SpliceERKS_ii
libpt.so.2.10.11:_ZN7PString7ReplaceERKS_S1_bi
libpt.so.2.10.11:_ZN7PString7SetSizeEi
libpt.so.2.10.11:_ZN7PString7sprintfEPKcz
libpt.so.2.10.11:_ZN7PString8ReadFromERSi
libpt.so.2.10.11:_ZN7PString8vsprintfEPKcP13__va_list_tag
libpt.so.2.10.11:_ZN7PString8vsprintfERKS_P13__va_list_tag
libpt.so.2.10.11:_ZN7PString9MakeEmptyEv
libpt.so.2.10.11:_ZN7PStringC1ENS_14ConversionTypeEPKcz
libpt.so.2.10.11:_ZN7PStringC1ENS_14ConversionTypeEdj
libpt.so.2.10.11:_ZN7PStringC1ENS_14ConversionTypeElj
libpt.so.2.10.11:_ZN7PStringC1EPKc
libpt.so.2.10.11:_ZN7PStringC1EPKci
libpt.so.2.10.11:_ZN7PStringC1EPKw
libpt.so.2.10.11:_ZN7PStringC1EPKwi
libpt.so.2.10.11:_ZN7PStringC1ERK10PBaseArrayIwE
libpt.so.2.10.11:_ZN7PStringC1ERKNSt7__cxx1112basic_stringIcSt11char_traitsIcESaIcEEE
libpt.so.2.10.11:_ZN7PStringC1ERKS_
libpt.so.2.10.11:_ZN7PStringC1Ec
libpt.so.2.10.11:_ZN7PStringC1Ei
libpt.so.2.10.11:_ZN7PStringC1EiPKS_
libpt.so.2.10.11:_ZN7PStringC1Ej
libpt.so.2.10.11:_ZN7PStringC1El
libpt.so.2.10.11:_ZN7PStringC1Em
libpt.so.2.10.11:_ZN7PStringC1Es
libpt.so.2.10.11:_ZN7PStringC1Et
libpt.so.2.10.11:_ZN7PStringC1Ev
libpt.so.2.10.11:_ZN7PStringC1Ex
libpt.so.2.10.11:_ZN7PStringC1Ey
libpt.so.2.10.11:_ZN7PStringC2ENS_14ConversionTypeEPKcz
libpt.so.2.10.11:_ZN7PStringC2ENS_14ConversionTypeEdj
libpt.so.2.10.11:_ZN7PStringC2ENS_14ConversionTypeElj
libpt.so.2.10.11:_ZN7PStringC2EPKc
libpt.so.2.10.11:_ZN7PStringC2EPKci
libpt.so.2.10.11:_ZN7PStringC2EPKw
libpt.so.2.10.11:_ZN7PStringC2EPKwi
libpt.so.2.10.11:_ZN7PStringC2ERK10PBaseArrayIwE
libpt.so.2.10.11:_ZN7PStringC2ERKNSt7__cxx1112basic_stringIcSt11char_traitsIcESaIcEEE
libpt.so.2.10.11:_ZN7PStringC2ERKS_
libpt.so.2.10.11:_ZN7PStringC2Ec
libpt.so.2.10.11:_ZN7PStringC2Ei
libpt.so.2.10.11:_ZN7PStringC2EiPKS_
libpt.so.2.10.11:_ZN7PStringC2Ej
libpt.so.2.10.11:_ZN7PStringC2El
libpt.so.2.10.11:_ZN7PStringC2Em
libpt.so.2.10.11:_ZN7PStringC2Es
libpt.so.2.10.11:_ZN7PStringC2Et
libpt.so.2.10.11:_ZN7PStringC2Ev
libpt.so.2.10.11:_ZN7PStringC2Ex
libpt.so.2.10.11:_ZN7PStringC2Ey
libpt.so.2.10.11:_ZN7PStringaNEPKc
libpt.so.2.10.11:_ZN7PStringaNERKS_
libpt.so.2.10.11:_ZN7PStringaNEc
libpt.so.2.10.11:_ZN7PStringaSEPKc
libpt.so.2.10.11:_ZN7PStringaSERKS_
libpt.so.2.10.11:_ZN7PStringaSEc
libpt.so.2.10.11:_ZN7PStringaSEi
libpt.so.2.10.11:_ZN7PStringaSEj
libpt.so.2.10.11:_ZN7PStringaSEl
libpt.so.2.10.11:_ZN7PStringaSEm
libpt.so.2.10.11:_ZN7PStringaSEs
libpt.so.2.10.11:_ZN7PStringaSEt
libpt.so.2.10.11:_ZN7PStringaSEx
libpt.so.2.10.11:_ZN7PStringaSEy
libpt.so.2.10.11:_ZN7PStringpLEPKc
libpt.so.2.10.11:_ZN7PStringpLERKS_
libpt.so.2.10.11:_ZN7PStringpLEc
libpt.so.2.10.11:_ZN7PThread11PXBlockOnIOEiiRK13PTimeInterval
libpt.so.2.10.11:_ZN7PThread11SetPriorityENS_8PriorityE
libpt.so.2.10.11:_ZN7PThread12PX_ThreadEndEPv
libpt.so.2.10.11:_ZN7PThread13SetAutoDeleteENS_14AutoDeleteFlagE
libpt.so.2.10.11:_ZN7PThread13SetThreadNameERK7PString
libpt.so.2.10.11:_ZN7PThread14PX_ThreadStartEPv
libpt.so.2.10.11:_ZN7PThread18GetCurrentThreadIdEv
libpt.so.2.10.11:_ZN7PThread5SleepERK13PTimeInterval
libpt.so.2.10.11:_ZN7PThread5YieldEv
libpt.so.2.10.11:_ZN7PThread6CreateERK17PNotifierTemplateIlElNS_14AutoDeleteFlagENS_8PriorityERK7PStringi
libpt.so.2.10.11:_ZN7PThread6ResumeEv
libpt.so.2.10.11:_ZN7PThread7CurrentEv
libpt.so.2.10.11:_ZN7PThread7RestartEv
libpt.so.2.10.11:_ZN7PThread7SuspendEb
libpt.so.2.10.11:_ZN7PThread8GetTimesERNS_5TimesE
libpt.so.2.10.11:_ZN7PThread9TerminateEv
libpt.so.2.10.11:_ZN7PThreadC1Eb
libpt.so.2.10.11:_ZN7PThreadC1EiNS_14AutoDeleteFlagENS_8PriorityERK7PString
libpt.so.2.10.11:_ZN7PThreadC2Eb
libpt.so.2.10.11:_ZN7PThreadC2EiNS_14AutoDeleteFlagENS_8PriorityERK7PString
libpt.so.2.10.11:_ZN7PThreadD0Ev
libpt.so.2.10.11:_ZN7PThreadD1Ev
libpt.so.2.10.11:_ZN7PThreadD2Ev
libpt.so.2.10.11:_ZN7PXMLRPC11MakeRequestER12PXMLRPCBlockS1_
libpt.so.2.10.11:_ZN7PXMLRPC11MakeRequestERK7PString
libpt.so.2.10.11:_ZN7PXMLRPC11MakeRequestERK7PStringR12PXMLRPCBlock
libpt.so.2.10.11:_ZN7PXMLRPC11MakeRequestERK7PStringRK17PXMLRPCStructBaseRS3_
libpt.so.2.10.11:_ZN7PXMLRPC14ISO8601ToPTimeERK7PStringR5PTimei
libpt.so.2.10.11:_ZN7PXMLRPC14PTimeToISO8601ERK5PTime
libpt.so.2.10.11:_ZN7PXMLRPC14PerformRequestER12PXMLRPCBlockS1_
libpt.so.2.10.11:_ZN7PXMLRPCC1ERK4PURLN8PXMLBase7OptionsE
libpt.so.2.10.11:_ZN7PXMLRPCC2ERK4PURLN8PXMLBase7OptionsE
libpt.so.2.10.11:_ZN8PASNNull16GetEncodedLengthEv
libpt.so.2.10.11:_ZN8PASNNull6EncodeER10PBYTEArray
libpt.so.2.10.11:_ZN8PASNNullC1ERK10PBYTEArrayRi
libpt.so.2.10.11:_ZN8PASNNullC1Ev
libpt.so.2.10.11:_ZN8PASNNullC2ERK10PBYTEArrayRi
libpt.so.2.10.11:_ZN8PASNNullC2Ev
libpt.so.2.10.11:_ZN8PASN_SetC1EjN11PASN_Object8TagClassEjbj
libpt.so.2.10.11:_ZN8PASN_SetC2EjN11PASN_Object8TagClassEjbj
libpt.so.2.10.11:_ZN8PArgList11ParseOptionEiiRiRK12PScalarArrayIiE
libpt.so.2.10.11:_ZN8PArgList5ParseEPKcb
libpt.so.2.10.11:_ZN8PArgList5ParseERK7PStringb
libpt.so.2.10.11:_ZN8PArgList5ShiftEi
libpt.so.2.10.11:_ZN8PArgList7SetArgsERK12PStringArray
libpt.so.2.10.11:_ZN8PArgList7SetArgsERK7PString
libpt.so.2.10.11:_ZN8PArgList7SetArgsEiPPc
libpt.so.2.10.11:_ZN8PArgList8ReadFromERSi
libpt.so.2.10.11:_ZN8PArgListC1EPKcS1_b
libpt.so.2.10.11:_ZN8PArgListC1ERK7PStringPKcb
libpt.so.2.10.11:_ZN8PArgListC1ERK7PStringS2_b
libpt.so.2.10.11:_ZN8PArgListC1EiPPcPKcb
libpt.so.2.10.11:_ZN8PArgListC1EiPPcRK7PStringb
libpt.so.2.10.11:_ZN8PArgListC2EPKcS1_b
libpt.so.2.10.11:_ZN8PArgListC2ERK7PStringPKcb
libpt.so.2.10.11:_ZN8PArgListC2ERK7PStringS2_b
libpt.so.2.10.11:_ZN8PArgListC2EiPPcPKcb
libpt.so.2.10.11:_ZN8PArgListC2EiPPcRK7PStringb
libpt.so.2.10.11:_ZN8PArgListlsEi
libpt.so.2.10.11:_ZN8PArgListrsEi
libpt.so.2.10.11:_ZN8PChannel10ReadStringEi
libpt.so.2.10.11:_ZN8PChannel10WriteAsyncEPKvi
libpt.so.2.10.11:_ZN8PChannel11FlowControlEPKv
libpt.so.2.10.11:_ZN8PChannel11WriteStringERK7PString
libpt.so.2.10.11:_ZN8PChannel12GetErrorTextENS_6ErrorsEi
libpt.so.2.10.11:_ZN8PChannel12PXSetIOBlockENS_11PXBlockTypeERK13PTimeInterval
libpt.so.2.10.11:_ZN8PChannel12SetLocalEchoEb
libpt.so.2.10.11:_ZN8PChannel13SetBufferSizeEi
libpt.so.2.10.11:_ZN8PChannel14ConvertOSErrorEiNS_10ErrorGroupE
libpt.so.2.10.11:_ZN8PChannel14ConvertOSErrorEiRNS_6ErrorsERi
libpt.so.2.10.11:_ZN8PChannel14OnReadCompleteEPvi
libpt.so.2.10.11:_ZN8PChannel14SetErrorValuesENS_6ErrorsEiNS_10ErrorGroupE
libpt.so.2.10.11:_ZN8PChannel14SetReadTimeoutERK13PTimeInterval
libpt.so.2.10.11:_ZN8PChannel15OnWriteCompleteEPKvi
libpt.so.2.10.11:_ZN8PChannel15SetWriteTimeoutERK13PTimeInterval
libpt.so.2.10.11:_ZN8PChannel17SendCommandStringERK7PString
libpt.so.2.10.11:_ZN8PChannel18AbortCommandStringEv
libpt.so.2.10.11:_ZN8PChannel19ReadCharWithTimeoutER13PTimeInterval
libpt.so.2.10.11:_ZN8PChannel20ReceiveCommandStringEiRK7PStringRii
libpt.so.2.10.11:_ZN8PChannel4ReadEPvi
libpt.so.2.10.11:_ZN8PChannel4ReadERKSt6vectorI5iovecSaIS1_EE
libpt.so.2.10.11:_ZN8PChannel5CloseEv
libpt.so.2.10.11:_ZN8PChannel5WriteEPKvi
libpt.so.2.10.11:_ZN8PChannel5WriteEPKviS1_
libpt.so.2.10.11:_ZN8PChannel5WriteERKSt6vectorI5iovecSaIS1_EE
libpt.so.2.10.11:_ZN8PChannel7PXCloseEv
libpt.so.2.10.11:_ZN8PChannel8ReadCharEv
libpt.so.2.10.11:_ZN8PChannel8ShutdownENS_13ShutdownValueE
libpt.so.2.10.11:_ZN8PChannel9ConstructEv
libpt.so.2.10.11:_ZN8PChannel9ReadAsyncEPvi
libpt.so.2.10.11:_ZN8PChannel9ReadBlockEPvi
libpt.so.2.10.11:_ZN8PChannel9WriteCharEi
libpt.so.2.10.11:_ZN8PChannelC1ERKS_
libpt.so.2.10.11:_ZN8PChannelC1Ev
libpt.so.2.10.11:_ZN8PChannelC2ERKS_
libpt.so.2.10.11:_ZN8PChannelC2Ev
libpt.so.2.10.11:_ZN8PChannelD0Ev
libpt.so.2.10.11:_ZN8PChannelD1Ev
libpt.so.2.10.11:_ZN8PChannelD2Ev
libpt.so.2.10.11:_ZN8PChannelaSERKS_
libpt.so.2.10.11:_ZN8PProcess10GetOSClassEv
libpt.so.2.10.11:_ZN8PProcess10PXOnSignalEi
libpt.so.2.10.11:_ZN8PProcess11IsOSVersionEjjj
libpt.so.2.10.11:_ZN8PProcess11OnInterruptEb
libpt.so.2.10.11:_ZN8PProcess11PThreadKillEmj
libpt.so.2.10.11:_ZN8PProcess11PXSetThreadEmP7PThread
libpt.so.2.10.11:_ZN8PProcess11PreShutdownEv
libpt.so.2.10.11:_ZN8PProcess11SetUserNameERK7PStringb
libpt.so.2.10.11:_ZN8PProcess12GetArgumentsEv
libpt.so.2.10.11:_ZN8PProcess12GetOSVersionEv
libpt.so.2.10.11:_ZN8PProcess12GetTimerListEv
libpt.so.2.10.11:_ZN8PProcess12InternalMainEPv
libpt.so.2.10.11:_ZN8PProcess12PXGetHomeDirEv
libpt.so.2.10.11:_ZN8PProcess12PostShutdownEv
libpt.so.2.10.11:_ZN8PProcess12SetGroupNameERK7PStringb
libpt.so.2.10.11:_ZN8PProcess13GetLibVersionEv
libpt.so.2.10.11:_ZN8PProcess13GetOSHardwareEv
libpt.so.2.10.11:_ZN8PProcess13IsInitialisedEv
libpt.so.2.10.11:_ZN8PProcess13OnThreadEndedER7PThread
libpt.so.2.10.11:_ZN8PProcess13OnThreadStartER7PThread
libpt.so.2.10.11:_ZN8PProcess13PreInitialiseEiPPcS1_
libpt.so.2.10.11:_ZN8PProcess13SetMaxHandlesEi
libpt.so.2.10.11:_ZN8PProcess13SetThreadNameERK7PString
libpt.so.2.10.11:_ZN8PProcess14CommonDestructEv
libpt.so.2.10.11:_ZN8PProcess14GetOSConfigDirEv
libpt.so.2.10.11:_ZN8PProcess14PXCheckSignalsEv
libpt.so.2.10.11:_ZN8PProcess15CommonConstructEv
libpt.so.2.10.11:_ZN8PProcess15PXOnAsyncSignalEi
libpt.so.2.10.11:_ZN8PProcess17SignalTimerChangeEv
libpt.so.2.10.11:_ZN8PProcess19GetCurrentProcessIDEv
libpt.so.2.10.11:_ZN8PProcess19PXShowSystemWarningEi
libpt.so.2.10.11:_ZN8PProcess19PXShowSystemWarningEiRK7PString
libpt.so.2.10.11:_ZN8PProcess19SetTerminationValueEi
libpt.so.2.10.11:_ZN8PProcess20GetConfigurationFileEv
libpt.so.2.10.11:_ZN8PProcess20SetConfigurationPathERK7PString
libpt.so.2.10.11:_ZN8PProcess20_PXShowSystemWarningEiRK7PString
libpt.so.2.10.11:_ZN8PProcess24HostSystemURLHandlerInfo10SetCommandERK7PStringS3_
libpt.so.2.10.11:_ZN8PProcess24HostSystemURLHandlerInfo13GetFromSystemEv
libpt.so.2.10.11:_ZN8PProcess24HostSystemURLHandlerInfo13RegisterTypesERK7PStringb
libpt.so.2.10.11:_ZN8PProcess24HostSystemURLHandlerInfo17CheckIfRegisteredEv
libpt.so.2.10.11:_ZN8PProcess24HostSystemURLHandlerInfo7SetIconERK7PString
libpt.so.2.10.11:_ZN8PProcess24HostSystemURLHandlerInfo8RegisterEv
libpt.so.2.10.11:_ZN8PProcess27CreateConfigFilesDictionaryEv
libpt.so.2.10.11:_ZN8PProcess7CurrentEv
libpt.so.2.10.11:_ZN8PProcess9ConstructEv
libpt.so.2.10.11:_ZN8PProcess9GetOSNameEv
libpt.so.2.10.11:_ZN8PProcess9TerminateEv
libpt.so.2.10.11:_ZN8PProcessC1EPKcS1_ttNS_10CodeStatusEtb
libpt.so.2.10.11:_ZN8PProcessC2EPKcS1_ttNS_10CodeStatusEtb
libpt.so.2.10.11:_ZN8PProcessD0Ev
libpt.so.2.10.11:_ZN8PProcessD1Ev
libpt.so.2.10.11:_ZN8PProcessD2Ev
libpt.so.2.10.11:_ZN8PWAVFile11SetChannelsEj
libpt.so.2.10.11:_ZN8PWAVFile11SetPositionElN5PFile18FilePositionOriginE
libpt.so.2.10.11:_ZN8PWAVFile12SelectFormatERK7PString
libpt.so.2.10.11:_ZN8PWAVFile12SelectFormatEj
libpt.so.2.10.11:_ZN8PWAVFile12UpdateHeaderEv
libpt.so.2.10.11:_ZN8PWAVFile13GetDataLengthEv
libpt.so.2.10.11:_ZN8PWAVFile13ProcessHeaderEv
libpt.so.2.10.11:_ZN8PWAVFile13SetSampleRateEj
libpt.so.2.10.11:_ZN8PWAVFile13SetSampleSizeEj
libpt.so.2.10.11:_ZN8PWAVFile14GenerateHeaderEv
libpt.so.2.10.11:_ZN8PWAVFile14RawSetPositionElN5PFile18FilePositionOriginE
libpt.so.2.10.11:_ZN8PWAVFile14SetAutoconvertEv
libpt.so.2.10.11:_ZN8PWAVFile16RawGetDataLengthEv
libpt.so.2.10.11:_ZN8PWAVFile17SetBytesPerSecondEj
libpt.so.2.10.11:_ZN8PWAVFile4OpenEN5PFile8OpenModeEi
libpt.so.2.10.11:_ZN8PWAVFile4OpenERK9PFilePathN5PFile8OpenModeEi
libpt.so.2.10.11:_ZN8PWAVFile4ReadEPvi
libpt.so.2.10.11:_ZN8PWAVFile5CloseEv
libpt.so.2.10.11:_ZN8PWAVFile5WriteEPKvi
libpt.so.2.10.11:_ZN8PWAVFile6formatERK7PString
libpt.so.2.10.11:_ZN8PWAVFile6formatERK7PStringN5PFile8OpenModeEi
libpt.so.2.10.11:_ZN8PWAVFile7RawReadEPvi
libpt.so.2.10.11:_ZN8PWAVFile8FileReadEPvi
libpt.so.2.10.11:_ZN8PWAVFile8RawWriteEPKvi
libpt.so.2.10.11:_ZN8PWAVFile9ConstructEv
libpt.so.2.10.11:_ZN8PWAVFile9FileWriteEPKvi
libpt.so.2.10.11:_ZN8PWAVFile9SetFormatERK7PString
libpt.so.2.10.11:_ZN8PWAVFile9SetFormatEj
libpt.so.2.10.11:_ZN8PWAVFileC1EN5PFile8OpenModeEij
libpt.so.2.10.11:_ZN8PWAVFileC1ERK7PStringRK9PFilePathN5PFile8OpenModeEi
libpt.so.2.10.11:_ZN8PWAVFileC1ERK9PFilePathN5PFile8OpenModeEij
libpt.so.2.10.11:_ZN8PWAVFileC1Ej
libpt.so.2.10.11:_ZN8PWAVFileC2EN5PFile8OpenModeEij
libpt.so.2.10.11:_ZN8PWAVFileC2ERK7PStringRK9PFilePathN5PFile8OpenModeEi
libpt.so.2.10.11:_ZN8PWAVFileC2ERK9PFilePathN5PFile8OpenModeEij
libpt.so.2.10.11:_ZN8PWAVFileC2Ej
libpt.so.2.10.11:_ZN8PWAVFileD0Ev
libpt.so.2.10.11:_ZN8PWAVFileD1Ev
libpt.so.2.10.11:_ZN8PWAVFileD2Ev
libpt.so.2.10.11:_ZN8PXConfig11AddInstanceEv
libpt.so.2.10.11:_ZN8PXConfig11WriteToFileERK9PFilePath
libpt.so.2.10.11:_ZN8PXConfig12ReadFromFileERK9PFilePath
libpt.so.2.10.11:_ZN8PXConfig14RemoveInstanceERK9PFilePath
libpt.so.2.10.11:_ZN8PXConfig19ReadFromEnvironmentEPPc
libpt.so.2.10.11:_ZN8PXConfig5FlushERK9PFilePath
libpt.so.2.10.11:_ZN8PXConfigC1Ev
libpt.so.2.10.11:_ZN8PXConfigC2Ev
libpt.so.2.10.11:_ZN8PXConfigD0Ev
libpt.so.2.10.11:_ZN8PXConfigD1Ev
libpt.so.2.10.11:_ZN8PXConfigD2Ev
libpt.so.2.10.11:_ZN8PXMLBaseC1Ei
libpt.so.2.10.11:_ZN8PXMLBaseC2Ei
libpt.so.2.10.11:_ZN8PXMLData9SetStringERK7PStringb
libpt.so.2.10.11:_ZN8PXMLDataC1EP11PXMLElementPKci
libpt.so.2.10.11:_ZN8PXMLDataC1EP11PXMLElementRK7PString
libpt.so.2.10.11:_ZN8PXMLDataC2EP11PXMLElementPKci
libpt.so.2.10.11:_ZN8PXMLDataC2EP11PXMLElementRK7PString
libpt.so.2.10.11:_ZN8PYUVFile10WriteFrameEPKv
libpt.so.2.10.11:_ZN8PYUVFile4OpenERK9PFilePathN5PFile8OpenModeEi
libpt.so.2.10.11:_ZN8PYUVFile9ReadFrameEPv
libpt.so.2.10.11:_ZN8PYUVFileC1Ev
libpt.so.2.10.11:_ZN8PYUVFileC2Ev
libpt.so.2.10.11:_ZN8P_fd_set4ZeroEv
libpt.so.2.10.11:_ZN8P_fd_set9ConstructEv
libpt.so.2.10.11:_ZN8P_fd_setC1Ei
libpt.so.2.10.11:_ZN8P_fd_setC1Ev
libpt.so.2.10.11:_ZN8P_fd_setC2Ei
libpt.so.2.10.11:_ZN8P_fd_setC2Ev
libpt.so.2.10.11:_ZN8P_fd_setaSEi
libpt.so.2.10.11:_ZN8P_fd_setmIEi
libpt.so.2.10.11:_ZN8P_fd_setpLEi
libpt.so.2.10.11:_ZN9PASN_Null6DecodeER11PASN_Stream
libpt.so.2.10.11:_ZN9PASN_NullC1EjN11PASN_Object8TagClassE
libpt.so.2.10.11:_ZN9PASN_NullC2EjN11PASN_Object8TagClassE
libpt.so.2.10.11:_ZN9PASN_Real6DecodeER11PASN_Stream
libpt.so.2.10.11:_ZN9PASN_RealC1Ed
libpt.so.2.10.11:_ZN9PASN_RealC1EjN11PASN_Object8TagClassEd
libpt.so.2.10.11:_ZN9PASN_RealC2Ed
libpt.so.2.10.11:_ZN9PASN_RealC2EjN11PASN_Object8TagClassEd
libpt.so.2.10.11:_ZN9PBitArray10GetPointerEi
libpt.so.2.10.11:_ZN9PBitArray11ConcatenateERKS_
libpt.so.2.10.11:_ZN9PBitArray5SetAtEib
libpt.so.2.10.11:_ZN9PBitArray6AttachEPKvi
libpt.so.2.10.11:_ZN9PBitArray7SetSizeEi
libpt.so.2.10.11:_ZN9PBitArrayC1EPKvib
libpt.so.2.10.11:_ZN9PBitArrayC1Ei
libpt.so.2.10.11:_ZN9PBitArrayC2EPKvib
libpt.so.2.10.11:_ZN9PBitArrayC2Ei
libpt.so.2.10.11:_ZN9PDynaLink11GetFunctionERK7PStringRPFvvE
libpt.so.2.10.11:_ZN9PDynaLink11GetFunctionEiRPFvvE
libpt.so.2.10.11:_ZN9PDynaLink12GetExtensionEv
libpt.so.2.10.11:_ZN9PDynaLink4OpenERK7PString
libpt.so.2.10.11:_ZN9PDynaLink5CloseEv
libpt.so.2.10.11:_ZN9PDynaLinkC1ERK7PString
libpt.so.2.10.11:_ZN9PDynaLinkC1Ev
libpt.so.2.10.11:_ZN9PDynaLinkC2ERK7PString
libpt.so.2.10.11:_ZN9PDynaLinkC2Ev
libpt.so.2.10.11:_ZN9PDynaLinkD0Ev
libpt.so.2.10.11:_ZN9PDynaLinkD1Ev
libpt.so.2.10.11:_ZN9PDynaLinkD2Ev
libpt.so.2.10.11:_ZN9PFilePath14AssignContentsERK10PContainer
libpt.so.2.10.11:_ZN9PFilePath14IsAbsolutePathERK7PString
libpt.so.2.10.11:_ZN9PFilePath7IsValidERK7PString
libpt.so.2.10.11:_ZN9PFilePath7IsValidEc
libpt.so.2.10.11:_ZN9PFilePath7SetTypeERK7PString
libpt.so.2.10.11:_ZN9PFilePathC1EPKc
libpt.so.2.10.11:_ZN9PFilePathC1EPKcS1_
libpt.so.2.10.11:_ZN9PFilePathC1ERK7PString
libpt.so.2.10.11:_ZN9PFilePathC1ERKS_
libpt.so.2.10.11:_ZN9PFilePathC1Ev
libpt.so.2.10.11:_ZN9PFilePathC2EPKc
libpt.so.2.10.11:_ZN9PFilePathC2EPKcS1_
libpt.so.2.10.11:_ZN9PFilePathC2ERK7PString
libpt.so.2.10.11:_ZN9PFilePathC2ERKS_
libpt.so.2.10.11:_ZN9PFilePathC2Ev
libpt.so.2.10.11:_ZN9PFilePathaSEPKc
libpt.so.2.10.11:_ZN9PFilePathaSERK7PString
libpt.so.2.10.11:_ZN9PFilePathaSERKS_
libpt.so.2.10.11:_ZN9PFilePathpLEPKc
libpt.so.2.10.11:_ZN9PFilePathpLERK7PString
libpt.so.2.10.11:_ZN9PHTTPFile11LoadHeadersER12PHTTPRequest
libpt.so.2.10.11:_ZN9PHTTPFile13CreateRequestERK4PURLRK9PMIMEInfoRK14PMultiPartListR11PHTTPServer
libpt.so.2.10.11:_ZN9PHTTPFile8LoadDataER12PHTTPRequestR10PCharArray
libpt.so.2.10.11:_ZN9PHTTPFile8LoadTextER12PHTTPRequest
libpt.so.2.10.11:_ZN9PHTTPFileC1ERK4PURLRK9PFilePath
libpt.so.2.10.11:_ZN9PHTTPFileC1ERK4PURLRK9PFilePathRK14PHTTPAuthority
libpt.so.2.10.11:_ZN9PHTTPFileC1ERK4PURLRK9PFilePathRK7PString
libpt.so.2.10.11:_ZN9PHTTPFileC1ERK4PURLRK9PFilePathRK7PStringRK14PHTTPAuthority
libpt.so.2.10.11:_ZN9PHTTPFileC1ERK4PURLi
libpt.so.2.10.11:_ZN9PHTTPFileC1ERK7PString
libpt.so.2.10.11:_ZN9PHTTPFileC1ERK7PStringRK14PHTTPAuthority
libpt.so.2.10.11:_ZN9PHTTPFileC2ERK4PURLRK9PFilePath
libpt.so.2.10.11:_ZN9PHTTPFileC2ERK4PURLRK9PFilePathRK14PHTTPAuthority
libpt.so.2.10.11:_ZN9PHTTPFileC2ERK4PURLRK9PFilePathRK7PString
libpt.so.2.10.11:_ZN9PHTTPFileC2ERK4PURLRK9PFilePathRK7PStringRK14PHTTPAuthority
libpt.so.2.10.11:_ZN9PHTTPFileC2ERK4PURLi
libpt.so.2.10.11:_ZN9PHTTPFileC2ERK7PString
libpt.so.2.10.11:_ZN9PHTTPFileC2ERK7PStringRK14PHTTPAuthority
libpt.so.2.10.11:_ZN9PHTTPForm12OnLoadedTextER12PHTTPRequestR7PString
libpt.so.2.10.11:_ZN9PHTTPForm3AddEP10PHTTPField
libpt.so.2.10.11:_ZN9PHTTPForm4PostER12PHTTPRequestRK15PStringToStringR5PHTML
libpt.so.2.10.11:_ZN9PHTTPForm9BuildHTMLEPKc
libpt.so.2.10.11:_ZN9PHTTPForm9BuildHTMLER5PHTMLNS_12BuildOptionsE
libpt.so.2.10.11:_ZN9PHTTPForm9BuildHTMLERK7PString
libpt.so.2.10.11:_ZN9PHTTPFormC1ERK4PURL
libpt.so.2.10.11:_ZN9PHTTPFormC1ERK4PURLRK14PHTTPAuthority
libpt.so.2.10.11:_ZN9PHTTPFormC1ERK4PURLRK7PString
libpt.so.2.10.11:_ZN9PHTTPFormC1ERK4PURLRK7PStringRK14PHTTPAuthority
libpt.so.2.10.11:_ZN9PHTTPFormC2ERK4PURL
libpt.so.2.10.11:_ZN9PHTTPFormC2ERK4PURLRK14PHTTPAuthority
libpt.so.2.10.11:_ZN9PHTTPFormC2ERK4PURLRK7PString
libpt.so.2.10.11:_ZN9PHTTPFormC2ERK4PURLRK7PStringRK14PHTTPAuthority
libpt.so.2.10.11:_ZN9PIPSocket11GetHostNameERK7PString
libpt.so.2.10.11:_ZN9PIPSocket11GetHostNameERKNS_7AddressE
libpt.so.2.10.11:_ZN9PIPSocket11GetHostNameEv
libpt.so.2.10.11:_ZN9PIPSocket11IsLocalHostERK7PString
libpt.so.2.10.11:_ZN9PIPSocket13GetRouteTableER6PArrayINS_10RouteEntryEE
libpt.so.2.10.11:_ZN9PIPSocket14ClearNameCacheEv
libpt.so.2.10.11:_ZN9PIPSocket14GetHostAddressERK7PStringRNS_7AddressE
libpt.so.2.10.11:_ZN9PIPSocket14GetHostAddressERNS_7AddressE
libpt.so.2.10.11:_ZN9PIPSocket14GetHostAliasesERK7PString
libpt.so.2.10.11:_ZN9PIPSocket14GetHostAliasesERKNS_7AddressE
libpt.so.2.10.11:_ZN9PIPSocket14GetPeerAddressER23PIPSocketAddressAndPort
libpt.so.2.10.11:_ZN9PIPSocket14GetPeerAddressERNS_7AddressE
libpt.so.2.10.11:_ZN9PIPSocket14GetPeerAddressERNS_7AddressERt
libpt.so.2.10.11:_ZN9PIPSocket14GetPeerAddressEv
libpt.so.2.10.11:_ZN9PIPSocket14InterfaceEntry12SanitiseNameER7PString
libpt.so.2.10.11:_ZN9PIPSocket14InterfaceEntryC1ERK7PStringRKNS_7AddressES6_S3_
libpt.so.2.10.11:_ZN9PIPSocket14InterfaceEntryC1Ev
libpt.so.2.10.11:_ZN9PIPSocket14InterfaceEntryC2ERK7PStringRKNS_7AddressES6_S3_
libpt.so.2.10.11:_ZN9PIPSocket14InterfaceEntryC2Ev
libpt.so.2.10.11:_ZN9PIPSocket15GetDefaultIpAnyEv
libpt.so.2.10.11:_ZN9PIPSocket15GetLocalAddressER23PIPSocketAddressAndPort
libpt.so.2.10.11:_ZN9PIPSocket15GetLocalAddressERNS_7AddressE
libpt.so.2.10.11:_ZN9PIPSocket15GetLocalAddressERNS_7AddressERt
libpt.so.2.10.11:_ZN9PIPSocket15GetLocalAddressEv
libpt.so.2.10.11:_ZN9PIPSocket15GetPeerHostNameEv
libpt.so.2.10.11:_ZN9PIPSocket16GetLocalHostNameEv
libpt.so.2.10.11:_ZN9PIPSocket17GetGatewayAddressERNS_7AddressEi
libpt.so.2.10.11:_ZN9PIPSocket17GetInterfaceTableER6PArrayINS_14InterfaceEntryEEb
libpt.so.2.10.11:_ZN9PIPSocket19GetDefaultV6ScopeIdEv
libpt.so.2.10.11:_ZN9PIPSocket19GetGatewayInterfaceEi
libpt.so.2.10.11:_ZN9PIPSocket19GetNetworkInterfaceERNS_7AddressE
libpt.so.2.10.11:_ZN9PIPSocket19SetDefaultV6ScopeIdEi
libpt.so.2.10.11:_ZN9PIPSocket24CreateRouteTableDetectorEv
libpt.so.2.10.11:_ZN9PIPSocket24GetRouteInterfaceAddressENS_7AddressE
libpt.so.2.10.11:_ZN9PIPSocket24GetSuppressCanonicalNameEv
libpt.so.2.10.11:_ZN9PIPSocket24SetSuppressCanonicalNameEb
libpt.so.2.10.11:_ZN9PIPSocket25GetDefaultIpAddressFamilyEv
libpt.so.2.10.11:_ZN9PIPSocket25SetDefaultIpAddressFamilyEi
libpt.so.2.10.11:_ZN9PIPSocket27SetDefaultIpAddressFamilyV4Ev
libpt.so.2.10.11:_ZN9PIPSocket27SetDefaultIpAddressFamilyV6Ev
libpt.so.2.10.11:_ZN9PIPSocket28IsIpAddressFamilyV6SupportedEv
libpt.so.2.10.11:_ZN9PIPSocket6ListenERKNS_7AddressEjtN7PSocket11ReusabilityE
libpt.so.2.10.11:_ZN9PIPSocket6ListenEjtN7PSocket11ReusabilityE
libpt.so.2.10.11:_ZN9PIPSocket7Address10FromStringERK7PString
libpt.so.2.10.11:_ZN9PIPSocket7Address11GetLoopbackEi
libpt.so.2.10.11:_ZN9PIPSocket7Address12GetBroadcastEi
libpt.so.2.10.11:_ZN9PIPSocket7Address6GetAnyEi
libpt.so.2.10.11:_ZN9PIPSocket7AddressC1ERK7PString
libpt.so.2.10.11:_ZN9PIPSocket7AddressC1ERK7in_addr
libpt.so.2.10.11:_ZN9PIPSocket7AddressC1ERK8in6_addr
libpt.so.2.10.11:_ZN9PIPSocket7AddressC1Ehhhh
libpt.so.2.10.11:_ZN9PIPSocket7AddressC1EiPKh
libpt.so.2.10.11:_ZN9PIPSocket7AddressC1EiiP8sockaddr
libpt.so.2.10.11:_ZN9PIPSocket7AddressC1Ej
libpt.so.2.10.11:_ZN9PIPSocket7AddressC1Ev
libpt.so.2.10.11:_ZN9PIPSocket7AddressC2ERK7PString
libpt.so.2.10.11:_ZN9PIPSocket7AddressC2ERK7in_addr
libpt.so.2.10.11:_ZN9PIPSocket7AddressC2ERK8in6_addr
libpt.so.2.10.11:_ZN9PIPSocket7AddressC2Ehhhh
libpt.so.2.10.11:_ZN9PIPSocket7AddressC2EiPKh
libpt.so.2.10.11:_ZN9PIPSocket7AddressC2EiiP8sockaddr
libpt.so.2.10.11:_ZN9PIPSocket7AddressC2Ej
libpt.so.2.10.11:_ZN9PIPSocket7AddressC2Ev
libpt.so.2.10.11:_ZN9PIPSocket7AddressaSERK7PString
libpt.so.2.10.11:_ZN9PIPSocket7AddressaSERK7in_addr
libpt.so.2.10.11:_ZN9PIPSocket7AddressaSERK8in6_addr
libpt.so.2.10.11:_ZN9PIPSocket7AddressaSEj
libpt.so.2.10.11:_ZN9PIPSocket7ConnectERK7PString
libpt.so.2.10.11:_ZN9PIPSocket7ConnectERKNS_7AddressE
libpt.so.2.10.11:_ZN9PIPSocket7ConnectERKNS_7AddressES2_
libpt.so.2.10.11:_ZN9PIPSocket7ConnectERKNS_7AddressEtS2_
libpt.so.2.10.11:_ZN9PIPSocket7ConnectEtRKNS_7AddressE
libpt.so.2.10.11:_ZN9PIPSocketC1Ev
libpt.so.2.10.11:_ZN9PIPSocketC2Ev
libpt.so.2.10.11:_ZN9PListInfodlEPv
libpt.so.2.10.11:_ZN9PListInfodlEPvPKci
libpt.so.2.10.11:_ZN9PListInfonwEm
libpt.so.2.10.11:_ZN9PListInfonwEmPKci
libpt.so.2.10.11:_ZN9PMIMEInfo12ContentIdTagEv
libpt.so.2.10.11:_ZN9PMIMEInfo12ParseComplexERK7PStringR15PStringToString
libpt.so.2.10.11:_ZN9PMIMEInfo14ContentTypeTagEv
libpt.so.2.10.11:_ZN9PMIMEInfo14GetContentTypeERK7PString
libpt.so.2.10.11:_ZN9PMIMEInfo14SetAssociationERK15PStringToStringb
libpt.so.2.10.11:_ZN9PMIMEInfo15GetContentTypesEv
libpt.so.2.10.11:_ZN9PMIMEInfo15InternalAddMIMEERK7PStringS2_
libpt.so.2.10.11:_ZN9PMIMEInfo21ContentDescriptionTagEv
libpt.so.2.10.11:_ZN9PMIMEInfo21ContentDispositionTagEv
libpt.so.2.10.11:_ZN9PMIMEInfo26ContentTransferEncodingTagEv
libpt.so.2.10.11:_ZN9PMIMEInfo4ReadER17PInternetProtocol
libpt.so.2.10.11:_ZN9PMIMEInfo7AddMIMEERK7PString
libpt.so.2.10.11:_ZN9PMIMEInfo7AddMIMEERKS_
libpt.so.2.10.11:_ZN9PMIMEInfo8ReadFromERSi
libpt.so.2.10.11:_ZN9PMIMEInfo9TextPlainEv
libpt.so.2.10.11:_ZN9PMIMEInfoC1ER17PInternetProtocol
libpt.so.2.10.11:_ZN9PMIMEInfoC1ERK15PStringToString
libpt.so.2.10.11:_ZN9PMIMEInfoC1ERK7PString
libpt.so.2.10.11:_ZN9PMIMEInfoC1ERSi
libpt.so.2.10.11:_ZN9PMIMEInfoC2ER17PInternetProtocol
libpt.so.2.10.11:_ZN9PMIMEInfoC2ERK15PStringToString
libpt.so.2.10.11:_ZN9PMIMEInfoC2ERK7PString
libpt.so.2.10.11:_ZN9PMIMEInfoC2ERSi
libpt.so.2.10.11:_ZN9PSNMP_PDU6DecodeER11PASN_Stream
libpt.so.2.10.11:_ZN9PSNMP_PDUC1EjN11PASN_Object8TagClassE
libpt.so.2.10.11:_ZN9PSNMP_PDUC2EjN11PASN_Object8TagClassE
libpt.so.2.10.11:_ZN9PTextFile8ReadLineER7PString
libpt.so.2.10.11:_ZN9PTextFile9WriteLineERK7PString
libpt.so.2.10.11:_ZN9PTextFileC1EN5PFile8OpenModeEi
libpt.so.2.10.11:_ZN9PTextFileC1ERK9PFilePathN5PFile8OpenModeEi
libpt.so.2.10.11:_ZN9PTextFileC1Ev
libpt.so.2.10.11:_ZN9PTextFileC2EN5PFile8OpenModeEi
libpt.so.2.10.11:_ZN9PTextFileC2ERK9PFilePathN5PFile8OpenModeEi
libpt.so.2.10.11:_ZN9PTextFileC2Ev
libpt.so.2.10.11:_ZN9PXML_HTTP10OnAutoLoadEb
libpt.so.2.10.11:_ZN9PXML_HTTP11AutoLoadURLEv
libpt.so.2.10.11:_ZN9PXML_HTTP16AutoReloadThreadER7PThreadl
libpt.so.2.10.11:_ZN9PXML_HTTP17AutoReloadTimeoutER6PTimerl
libpt.so.2.10.11:_ZN9PXML_HTTP17StopAutoReloadURLEv
libpt.so.2.10.11:_ZN9PXML_HTTP18StartAutoReloadURLERK4PURLRK13PTimeIntervalS5_N8PXMLBase7OptionsE
libpt.so.2.10.11:_ZN9PXML_HTTP7LoadURLERK4PURL
libpt.so.2.10.11:_ZN9PXML_HTTP7LoadURLERK4PURLRK13PTimeIntervalN8PXMLBase7OptionsE
libpt.so.2.10.11:_ZN9PXML_HTTPC1EiPKc
libpt.so.2.10.11:_ZN9PXML_HTTPC2EiPKc
libpt.so.2.10.11:_ZN9P_timevalC1Ev
libpt.so.2.10.11:_ZN9P_timevalC2Ev
libpt.so.2.10.11:_ZN9P_timevalaSERK13PTimeInterval
libpt.so.2.10.11:_ZN9PsockaddrC1ERKN9PIPSocket7AddressEt
libpt.so.2.10.11:_ZN9PsockaddrC2ERKN9PIPSocket7AddressEt
libpt.so.2.10.11:_ZNK10PASNObject10GetIntegerEv
libpt.so.2.10.11:_ZNK10PASNObject11GetSequenceEv
libpt.so.2.10.11:_ZNK10PASNObject11GetUnsignedEv
libpt.so.2.10.11:_ZNK10PASNObject12GetIPAddressEv
libpt.so.2.10.11:_ZNK10PASNObject15GetTypeAsStringEv
libpt.so.2.10.11:_ZNK10PASNObject5CloneEv
libpt.so.2.10.11:_ZNK10PASNObject7GetTypeEv
libpt.so.2.10.11:_ZNK10PASNObject7PrintOnERSo
libpt.so.2.10.11:_ZNK10PASNObject9GetStringEv
libpt.so.2.10.11:_ZNK10PASNString15GetTypeAsStringEv
libpt.so.2.10.11:_ZNK10PASNString5CloneEv
libpt.so.2.10.11:_ZNK10PASNString7GetTypeEv
libpt.so.2.10.11:_ZNK10PASNString7PrintOnERSo
libpt.so.2.10.11:_ZNK10PASNString9GetStringEv
libpt.so.2.10.11:_ZNK10PASN_Array11IsPrimitiveEv
libpt.so.2.10.11:_ZNK10PASN_Array13GetDataLengthEv
libpt.so.2.10.11:_ZNK10PASN_Array15GetTypeAsStringEv
libpt.so.2.10.11:_ZNK10PASN_Array6EncodeER11PASN_Stream
libpt.so.2.10.11:_ZNK10PASN_Array7CompareERK7PObject
libpt.so.2.10.11:_ZNK10PASN_Array7PrintOnERSo
libpt.so.2.10.11:_ZNK10PBYTEArray7PrintOnERSo
libpt.so.2.10.11:_ZNK10PCharArray7PrintOnERSo
libpt.so.2.10.11:_ZNK10PContainer7GetSizeEv
libpt.so.2.10.11:_ZNK10PContainer7IsEmptyEv
libpt.so.2.10.11:_ZNK10PContainer8IsUniqueEv
libpt.so.2.10.11:_ZNK10PDirectory12GetEntryNameEv
libpt.so.2.10.11:_ZNK10PDirectory14GetVolumeSpaceERxS0_Rj
libpt.so.2.10.11:_ZNK10PDirectory6ChangeEv
libpt.so.2.10.11:_ZNK10PDirectory6CreateEi
libpt.so.2.10.11:_ZNK10PDirectory6ExistsEv
libpt.so.2.10.11:_ZNK10PDirectory6IsRootEv
libpt.so.2.10.11:_ZNK10PDirectory7GetInfoER9PFileInfo
libpt.so.2.10.11:_ZNK10PDirectory7GetPathEv
libpt.so.2.10.11:_ZNK10PDirectory7GetRootEv
libpt.so.2.10.11:_ZNK10PDirectory8IsSubDirEv
libpt.so.2.10.11:_ZNK10PDirectory9GetParentEv
libpt.so.2.10.11:_ZNK10PDirectory9GetVolumeEv
libpt.so.2.10.11:_ZNK10PEthSocket15GetProtocolNameEv
libpt.so.2.10.11:_ZNK10PEthSocket7Addresscv7PStringEv
libpt.so.2.10.11:_ZNK10PEthSocket7AddresseqEPKh
libpt.so.2.10.11:_ZNK10PEthSocket7AddressneEPKh
libpt.so.2.10.11:_ZNK10PFTPServer14GetHelloStringERK7PString
libpt.so.2.10.11:_ZNK10PFTPServer16GetGoodbyeStringERK7PString
libpt.so.2.10.11:_ZNK10PFTPServer19GetSystemTypeStringEv
libpt.so.2.10.11:_ZNK10PHTTPField10LocateNameERK7PString
libpt.so.2.10.11:_ZNK10PHTTPField11GetAllNamesER12PStringArray
libpt.so.2.10.11:_ZNK10PHTTPField11ValidateAllERK15PStringToStringR13PStringStream
libpt.so.2.10.11:_ZNK10PHTTPField12GetHTMLInputERK7PString
libpt.so.2.10.11:_ZNK10PHTTPField12SaveToConfigER7PConfig
libpt.so.2.10.11:_ZNK10PHTTPField13GetHTMLSelectERK7PString
libpt.so.2.10.11:_ZNK10PHTTPField14GetHTMLHeadingER5PHTML
libpt.so.2.10.11:_ZNK10PHTTPField16ExpandFieldNamesER7PStringiRi
libpt.so.2.10.11:_ZNK10PHTTPField7CompareERK7PObject
libpt.so.2.10.11:_ZNK10PHTTPField9ValidatedERK7PStringR13PStringStream
libpt.so.2.10.11:_ZNK10PHashTable16AbstractContainsERK7PObject
libpt.so.2.10.11:_ZNK10PHashTable16AbstractGetKeyAtEi
libpt.so.2.10.11:_ZNK10PHashTable17AbstractGetDataAtEi
libpt.so.2.10.11:_ZNK10PHashTable7CompareERK7PObject
libpt.so.2.10.11:_ZNK10PNatMethod7PrintOnERSo
libpt.so.2.10.11:_ZNK10PNatMethod9GetServerEv
libpt.so.2.10.11:_ZNK10PSNMP_PDUs5CloneEv
libpt.so.2.10.11:_ZNK10PSNMP_PDUs6EncodeER11PASN_Stream
libpt.so.2.10.11:_ZNK10PSNMP_PDUscvRK14PSNMP_Trap_PDUEv
libpt.so.2.10.11:_ZNK10PSNMP_PDUscvRK20PSNMP_GetRequest_PDUEv
libpt.so.2.10.11:_ZNK10PSNMP_PDUscvRK20PSNMP_SetRequest_PDUEv
libpt.so.2.10.11:_ZNK10PSNMP_PDUscvRK21PSNMP_GetResponse_PDUEv
libpt.so.2.10.11:_ZNK10PSNMP_PDUscvRK24PSNMP_GetNextRequest_PDUEv
libpt.so.2.10.11:_ZNK10PSemaphore9WillBlockEv
libpt.so.2.10.11:_ZNK10PSyncPoint9WillBlockEv
libpt.so.2.10.11:_ZNK10PTCPSocket15GetProtocolNameEv
libpt.so.2.10.11:_ZNK10PTCPSocket5CloneEv
libpt.so.2.10.11:_ZNK10PTEACypher6GetKeyERNS_3KeyE
libpt.so.2.10.11:_ZNK10PUDPSocket14GetSendAddressERN9PIPSocket7AddressERt
libpt.so.2.10.11:_ZNK10PUDPSocket14GetSendAddressEv
libpt.so.2.10.11:_ZNK10PUDPSocket15GetProtocolNameEv
libpt.so.2.10.11:_ZNK10PUDPSocket21GetLastReceiveAddressERN9PIPSocket7AddressERt
libpt.so.2.10.11:_ZNK10PUDPSocket21GetLastReceiveAddressEv
libpt.so.2.10.11:_ZNK10PVideoFile11GetPositionEv
libpt.so.2.10.11:_ZNK10PVideoFile9GetLengthEv
libpt.so.2.10.11:_ZNK10PXMLObject13GetNextObjectEv
libpt.so.2.10.11:_ZNK10PXMLObject8AsStringEv
libpt.so.2.10.11:_ZNK10PXMLParser10GetXMLTreeEv
libpt.so.2.10.11:_ZNK11PASNCounter15GetTypeAsStringEv
libpt.so.2.10.11:_ZNK11PASNInteger10GetIntegerEv
libpt.so.2.10.11:_ZNK11PASNInteger15GetTypeAsStringEv
libpt.so.2.10.11:_ZNK11PASNInteger5CloneEv
libpt.so.2.10.11:_ZNK11PASNInteger7GetTypeEv
libpt.so.2.10.11:_ZNK11PASNInteger7PrintOnERSo
libpt.so.2.10.11:_ZNK11PASNInteger9GetStringEv
libpt.so.2.10.11:_ZNK11PASN_Choice10GetTagNameEv
libpt.so.2.10.11:_ZNK11PASN_Choice11CheckCreateEv
libpt.so.2.10.11:_ZNK11PASN_Choice11IsPrimitiveEv
libpt.so.2.10.11:_ZNK11PASN_Choice13GetDataLengthEv
libpt.so.2.10.11:_ZNK11PASN_Choice14GetValueByNameE7PString
libpt.so.2.10.11:_ZNK11PASN_Choice15GetTypeAsStringEv
libpt.so.2.10.11:_ZNK11PASN_Choice6EncodeER11PASN_Stream
libpt.so.2.10.11:_ZNK11PASN_Choice7CompareERK7PObject
libpt.so.2.10.11:_ZNK11PASN_Choice7PrintOnERSo
libpt.so.2.10.11:_ZNK11PASN_Choice9EncodePERER11PPER_Stream
libpt.so.2.10.11:_ZNK11PASN_Choice9EncodeXERER11PXER_Stream
libpt.so.2.10.11:_ZNK11PASN_Choice9GetObjectEv
libpt.so.2.10.11:_ZNK11PASN_ChoicecvRK12PASN_BooleanEv
libpt.so.2.10.11:_ZNK11PASN_ChoicecvRK12PASN_IntegerEv
libpt.so.2.10.11:_ZNK11PASN_ChoicecvRK13PASN_ObjectIdEv
libpt.so.2.10.11:_ZNK11PASN_ChoicecvRK13PASN_SequenceEv
libpt.so.2.10.11:_ZNK11PASN_ChoicecvRK14PASN_BMPStringEv
libpt.so.2.10.11:_ZNK11PASN_ChoicecvRK14PASN_BitStringEv
libpt.so.2.10.11:_ZNK11PASN_ChoicecvRK14PASN_IA5StringEv
libpt.so.2.10.11:_ZNK11PASN_ChoicecvRK16PASN_EnumerationEv
libpt.so.2.10.11:_ZNK11PASN_ChoicecvRK16PASN_OctetStringEv
libpt.so.2.10.11:_ZNK11PASN_ChoicecvRK18PASN_GeneralStringEv
libpt.so.2.10.11:_ZNK11PASN_ChoicecvRK18PASN_NumericStringEv
libpt.so.2.10.11:_ZNK11PASN_ChoicecvRK18PASN_VisibleStringEv
libpt.so.2.10.11:_ZNK11PASN_ChoicecvRK20PASN_PrintableStringEv
libpt.so.2.10.11:_ZNK11PASN_ChoicecvRK9PASN_NullEv
libpt.so.2.10.11:_ZNK11PASN_ChoicecvRK9PASN_RealEv
libpt.so.2.10.11:_ZNK11PASN_Object15GetObjectLengthEv
libpt.so.2.10.11:_ZNK11PASN_Stream7PrintOnERSo
libpt.so.2.10.11:_ZNK11PBER_Stream12CreateObjectEjN11PASN_Object8TagClassEb
libpt.so.2.10.11:_ZNK11PCollection7PrintOnERSo
libpt.so.2.10.11:_ZNK11PConfigArgs12CharToStringEc
libpt.so.2.10.11:_ZNK11PConfigArgs14GetOptionCountEPKc
libpt.so.2.10.11:_ZNK11PConfigArgs14GetOptionCountERK7PString
libpt.so.2.10.11:_ZNK11PConfigArgs14GetOptionCountEc
libpt.so.2.10.11:_ZNK11PConfigArgs15GetOptionStringEPKcS1_
libpt.so.2.10.11:_ZNK11PConfigArgs15GetOptionStringERK7PStringPKc
libpt.so.2.10.11:_ZNK11PConfigArgs15GetOptionStringEcPKc
libpt.so.2.10.11:_ZNK11PHTTPServer13GetServerNameEv
libpt.so.2.10.11:_ZNK11PICMPSocket15GetProtocolNameEv
libpt.so.2.10.11:_ZNK11PMemoryFile11GetPositionEv
libpt.so.2.10.11:_ZNK11PMemoryFile7CompareERK7PObject
libpt.so.2.10.11:_ZNK11PMemoryFile9GetLengthEv
libpt.so.2.10.11:_ZNK11POrdinalKey12HashFunctionEv
libpt.so.2.10.11:_ZNK11POrdinalKey5CloneEv
libpt.so.2.10.11:_ZNK11POrdinalKey7CompareERK7PObject
libpt.so.2.10.11:_ZNK11POrdinalKey7PrintOnERSo
libpt.so.2.10.11:_ZNK11POrdinalKeycviEv
libpt.so.2.10.11:_ZNK11PPER_Stream11GetBitsLeftEv
libpt.so.2.10.11:_ZNK11PSNMPClient10GetVersionEv
libpt.so.2.10.11:_ZNK11PSNMPClient12GetCommunityEv
libpt.so.2.10.11:_ZNK11PSNMPClient12GetRequestIDEv
libpt.so.2.10.11:_ZNK11PSNMPClient16GetLastErrorCodeEv
libpt.so.2.10.11:_ZNK11PSNMPClient16GetLastErrorTextEv
libpt.so.2.10.11:_ZNK11PSNMPClient17GetLastErrorIndexEv
libpt.so.2.10.11:_ZNK11PSSLChannel12GetErrorTextEN8PChannel10ErrorGroupE
libpt.so.2.10.11:_ZNK11PSTUNClient16GetServerAddressERN9PIPSocket7AddressERt
libpt.so.2.10.11:_ZNK11PSTUNClient19GetInterfaceAddressERN9PIPSocket7AddressE
libpt.so.2.10.11:_ZNK11PSafeObject12LockReadOnlyEv
libpt.so.2.10.11:_ZNK11PSafeObject14UnlockReadOnlyEv
libpt.so.2.10.11:_ZNK11PSafeObject18SafelyCanBeDeletedEv
libpt.so.2.10.11:_ZNK11PStringList15GetStringsIndexERK7PString
libpt.so.2.10.11:_ZNK11PTimedMutex9WillBlockEv
libpt.so.2.10.11:_ZNK11PXMLElement10FindObjectEPK10PXMLObject
libpt.so.2.10.11:_ZNK11PXMLElement10GetElementERK15PCaselessStringS2_RK7PString
libpt.so.2.10.11:_ZNK11PXMLElement10GetElementERK15PCaselessStringi
libpt.so.2.10.11:_ZNK11PXMLElement10GetElementEi
libpt.so.2.10.11:_ZNK11PXMLElement11GetPathNameEv
libpt.so.2.10.11:_ZNK11PXMLElement12GetAttributeERK15PCaselessString
libpt.so.2.10.11:_ZNK11PXMLElement12GetNamespaceERK15PCaselessStringRS0_
libpt.so.2.10.11:_ZNK11PXMLElement12HasAttributeERK15PCaselessString
libpt.so.2.10.11:_ZNK11PXMLElement15GetKeyAttributeEi
libpt.so.2.10.11:_ZNK11PXMLElement16GetDataAttributeEi
libpt.so.2.10.11:_ZNK11PXMLElement16PrependNamespaceERK15PCaselessString
libpt.so.2.10.11:_ZNK11PXMLElement19GetDefaultNamespaceER15PCaselessString
libpt.so.2.10.11:_ZNK11PXMLElement5CloneEPS_
libpt.so.2.10.11:_ZNK11PXMLElement6OutputERSoRK8PXMLBasei
libpt.so.2.10.11:_ZNK11PXMLElement7GetDataEv
libpt.so.2.10.11:_ZNK11PXMLElement7PrintOnERSo
libpt.so.2.10.11:_ZNK12PASNObjectID15GetTypeAsStringEv
libpt.so.2.10.11:_ZNK12PASNObjectID5CloneEv
libpt.so.2.10.11:_ZNK12PASNObjectID7GetTypeEv
libpt.so.2.10.11:_ZNK12PASNObjectID7PrintOnERSo
libpt.so.2.10.11:_ZNK12PASNObjectID9GetStringEv
libpt.so.2.10.11:_ZNK12PASNSequence11GetSequenceEv
libpt.so.2.10.11:_ZNK12PASNSequence15GetTypeAsStringEv
libpt.so.2.10.11:_ZNK12PASNSequence7GetSizeEv
libpt.so.2.10.11:_ZNK12PASNSequence7GetTypeEv
libpt.so.2.10.11:_ZNK12PASNSequence7PrintOnERSo
libpt.so.2.10.11:_ZNK12PASNSequence9GetChoiceEv
libpt.so.2.10.11:_ZNK12PASNSequenceixEi
libpt.so.2.10.11:_ZNK12PASN_Boolean13GetDataLengthEv
libpt.so.2.10.11:_ZNK12PASN_Boolean15GetTypeAsStringEv
libpt.so.2.10.11:_ZNK12PASN_Boolean5CloneEv
libpt.so.2.10.11:_ZNK12PASN_Boolean6EncodeER11PASN_Stream
libpt.so.2.10.11:_ZNK12PASN_Boolean7CompareERK7PObject
libpt.so.2.10.11:_ZNK12PASN_Boolean7PrintOnERSo
libpt.so.2.10.11:_ZNK12PASN_Integer10IsUnsignedEv
libpt.so.2.10.11:_ZNK12PASN_Integer13GetDataLengthEv
libpt.so.2.10.11:_ZNK12PASN_Integer15GetTypeAsStringEv
libpt.so.2.10.11:_ZNK12PASN_Integer5CloneEv
libpt.so.2.10.11:_ZNK12PASN_Integer6EncodeER11PASN_Stream
libpt.so.2.10.11:_ZNK12PASN_Integer7CompareERK7PObject
libpt.so.2.10.11:_ZNK12PASN_Integer7PrintOnERSo
libpt.so.2.10.11:_ZNK12PASN_Integer9EncodePERER11PPER_Stream
libpt.so.2.10.11:_ZNK12PAbstractSet14GetValuesIndexERK7PObject
libpt.so.2.10.11:_ZNK12PAbstractSet15GetObjectsIndexEPK7PObject
libpt.so.2.10.11:_ZNK12PAbstractSet5GetAtEi
libpt.so.2.10.11:_ZNK12PHTTPSubForm10GetHTMLTagER5PHTML
libpt.so.2.10.11:_ZNK12PHTTPSubForm14GetHTMLHeadingER5PHTML
libpt.so.2.10.11:_ZNK12PHTTPSubForm8NewFieldEv
libpt.so.2.10.11:_ZNK12PIPCacheData7HasAgedEv
libpt.so.2.10.11:_ZNK12PPipeChannel13GetReturnCodeEv
libpt.so.2.10.11:_ZNK12PPipeChannel7CompareERK7PObject
libpt.so.2.10.11:_ZNK12PPipeChannel7GetNameEv
libpt.so.2.10.11:_ZNK12PPipeChannel9IsRunningEv
libpt.so.2.10.11:_ZNK12PSafePtrBase7CompareERK7PObject
libpt.so.2.10.11:_ZNK12PSafePtrBase7PrintOnERSo
libpt.so.2.10.11:_ZNK12PSimpleTimer10GetElapsedEv
libpt.so.2.10.11:_ZNK12PSimpleTimer10HasExpiredEv
libpt.so.2.10.11:_ZNK12PSimpleTimer12GetRemainingEv
libpt.so.2.10.11:_ZNK12PSimpleTimer9IsRunningEv
libpt.so.2.10.11:_ZNK12PSimpleTimercvbEv
libpt.so.2.10.11:_ZNK12PStringArray11ToCharArrayEP10PCharArray
libpt.so.2.10.11:_ZNK12PStringArray15GetStringsIndexERK7PString
libpt.so.2.10.11:_ZNK12PStringArrayixEi
libpt.so.2.10.11:_ZNK12PVXMLChannel6IsOpenEv
libpt.so.2.10.11:_ZNK12PVXMLSession11GetXMLErrorEv
libpt.so.2.10.11:_ZNK12PVXMLSession6GetVarERK7PString
libpt.so.2.10.11:_ZNK12PVideoDevice10GetChannelEv
libpt.so.2.10.11:_ZNK12PVideoDevice12GetFrameSizeERjS0_
libpt.so.2.10.11:_ZNK12PVideoDevice14GetDeviceNamesEv
libpt.so.2.10.11:_ZNK12PVideoDevice14GetVideoFormatEv
libpt.so.2.10.11:_ZNK12PVideoDevice25GetMaxFrameBytesConvertedEi
libpt.so.2.10.11:_ZNK12PXMLRPCBlock13GetParamCountEv
libpt.so.2.10.11:_ZNK12PXMLRPCBlock8GetParamEi
libpt.so.2.10.11:_ZNK12PXMLSettings12GetAttributeERK15PCaselessStringRK7PString
libpt.so.2.10.11:_ZNK12PXMLSettings12HasAttributeERK15PCaselessStringRK7PString
libpt.so.2.10.11:_ZNK12PXMLSettings8ToConfigER7PConfig
libpt.so.2.10.11:_ZNK13PASNIPAddress12GetIPAddressEv
libpt.so.2.10.11:_ZNK13PASNIPAddress15GetTypeAsStringEv
libpt.so.2.10.11:_ZNK13PASNIPAddress9GetStringEv
libpt.so.2.10.11:_ZNK13PASNTimeTicks15GetTypeAsStringEv
libpt.so.2.10.11:_ZNK13PASN_ObjectId12CommonEncodeER10PBYTEArray
libpt.so.2.10.11:_ZNK13PASN_ObjectId13GetDataLengthEv
libpt.so.2.10.11:_ZNK13PASN_ObjectId15GetTypeAsStringEv
libpt.so.2.10.11:_ZNK13PASN_ObjectId5CloneEv
libpt.so.2.10.11:_ZNK13PASN_ObjectId6EncodeER11PASN_Stream
libpt.so.2.10.11:_ZNK13PASN_ObjectId7CompareERK7PObject
libpt.so.2.10.11:_ZNK13PASN_ObjectId7PrintOnERSo
libpt.so.2.10.11:_ZNK13PASN_ObjectId8AsStringEv
libpt.so.2.10.11:_ZNK13PASN_ObjectIdeqEPKc
libpt.so.2.10.11:_ZNK13PASN_Sequence11IsPrimitiveEv
libpt.so.2.10.11:_ZNK13PASN_Sequence13GetDataLengthEv
libpt.so.2.10.11:_ZNK13PASN_Sequence14PreambleEncodeER11PASN_Stream
libpt.so.2.10.11:_ZNK13PASN_Sequence15GetTypeAsStringEv
libpt.so.2.10.11:_ZNK13PASN_Sequence16HasOptionalFieldEi
libpt.so.2.10.11:_ZNK13PASN_Sequence17PreambleEncodeBERER11PBER_Stream
libpt.so.2.10.11:_ZNK13PASN_Sequence17PreambleEncodePERER11PPER_Stream
libpt.so.2.10.11:_ZNK13PASN_Sequence17PreambleEncodeXERER11PXER_Stream
libpt.so.2.10.11:_ZNK13PASN_Sequence20KnownExtensionEncodeER11PASN_StreamiRK11PASN_Object
libpt.so.2.10.11:_ZNK13PASN_Sequence23KnownExtensionEncodeBERER11PBER_StreamiRK11PASN_Object
libpt.so.2.10.11:_ZNK13PASN_Sequence23KnownExtensionEncodePERER11PPER_StreamiRK11PASN_Object
libpt.so.2.10.11:_ZNK13PASN_Sequence23KnownExtensionEncodeXERER11PXER_StreamiRK11PASN_Object
libpt.so.2.10.11:_ZNK13PASN_Sequence23UnknownExtensionsEncodeER11PASN_Stream
libpt.so.2.10.11:_ZNK13PASN_Sequence26UnknownExtensionsEncodeBERER11PBER_Stream
libpt.so.2.10.11:_ZNK13PASN_Sequence26UnknownExtensionsEncodePERER11PPER_Stream
libpt.so.2.10.11:_ZNK13PASN_Sequence26UnknownExtensionsEncodeXERER11PXER_Stream
libpt.so.2.10.11:_ZNK13PASN_Sequence5CloneEv
libpt.so.2.10.11:_ZNK13PASN_Sequence6EncodeER11PASN_Stream
libpt.so.2.10.11:_ZNK13PASN_Sequence7CompareERK7PObject
libpt.so.2.10.11:_ZNK13PASN_Sequence7PrintOnERSo
libpt.so.2.10.11:_ZNK13PAbstractList10SetCurrentEiRP12PListElement
libpt.so.2.10.11:_ZNK13PAbstractList14GetReferenceAtEi
libpt.so.2.10.11:_ZNK13PAbstractList14GetValuesIndexERK7PObject
libpt.so.2.10.11:_ZNK13PAbstractList15GetObjectsIndexEPK7PObject
libpt.so.2.10.11:_ZNK13PAbstractList5GetAtEi
libpt.so.2.10.11:_ZNK13PAbstractList7CompareERK7PObject
libpt.so.2.10.11:_ZNK13PArrayObjects14GetValuesIndexERK7PObject
libpt.so.2.10.11:_ZNK13PArrayObjects15GetObjectsIndexEPK7PObject
libpt.so.2.10.11:_ZNK13PArrayObjects5GetAtEi
libpt.so.2.10.11:_ZNK13PArrayObjects7CompareERK7PObject
libpt.so.2.10.11:_ZNK13PArrayObjects7GetSizeEv
libpt.so.2.10.11:_ZNK13PIntCondMutex7PrintOnERSo
libpt.so.2.10.11:_ZNK13PSNMP_Message13GetDataLengthEv
libpt.so.2.10.11:_ZNK13PSNMP_Message5CloneEv
libpt.so.2.10.11:_ZNK13PSNMP_Message6EncodeER11PASN_Stream
libpt.so.2.10.11:_ZNK13PSNMP_Message7CompareERK7PObject
libpt.so.2.10.11:_ZNK13PSNMP_Message7PrintOnERSo
libpt.so.2.10.11:_ZNK13PSNMP_VarBind13GetDataLengthEv
libpt.so.2.10.11:_ZNK13PSNMP_VarBind5CloneEv
libpt.so.2.10.11:_ZNK13PSNMP_VarBind6EncodeER11PASN_Stream
libpt.so.2.10.11:_ZNK13PSNMP_VarBind7CompareERK7PObject
libpt.so.2.10.11:_ZNK13PSNMP_VarBind7PrintOnERSo
libpt.so.2.10.11:_ZNK13PSecureConfig13GetProductKeyERN10PTEACypher3KeyE
libpt.so.2.10.11:_ZNK13PSecureConfig13GetValidationEv
libpt.so.2.10.11:_ZNK13PServiceMacro7CompareERK7PObject
libpt.so.2.10.11:_ZNK13PServiceMacro9TranslateER12PHTTPRequestRK7PStringS4_
libpt.so.2.10.11:_ZNK13PSmartPointer7CompareERK7PObject
libpt.so.2.10.11:_ZNK13PSocks4Socket5CloneEv
libpt.so.2.10.11:_ZNK13PSocks5Socket5CloneEv
libpt.so.2.10.11:_ZNK13PSoundChannel11GetChannelsEv
libpt.so.2.10.11:_ZNK13PSoundChannel13GetSampleRateEv
libpt.so.2.10.11:_ZNK13PSoundChannel13GetSampleSizeEv
libpt.so.2.10.11:_ZNK13PSoundChannel16GetLastReadCountEv
libpt.so.2.10.11:_ZNK13PSoundChannel17GetLastWriteCountEv
libpt.so.2.10.11:_ZNK13PSoundChannel6IsOpenEv
libpt.so.2.10.11:_ZNK13PSoundChannel7GetNameEv
libpt.so.2.10.11:_ZNK13PSoundChannel9GetHandleEv
libpt.so.2.10.11:_ZNK13PTelnetSocket13GetWindowSizeERtS0_
libpt.so.2.10.11:_ZNK13PTimeInterval10GetMinutesEv
libpt.so.2.10.11:_ZNK13PTimeInterval10GetSecondsEv
libpt.so.2.10.11:_ZNK13PTimeInterval11GetIntervalEv
libpt.so.2.10.11:_ZNK13PTimeInterval15GetMilliSecondsEv
libpt.so.2.10.11:_ZNK13PTimeInterval5CloneEv
libpt.so.2.10.11:_ZNK13PTimeInterval7CompareERK7PObject
libpt.so.2.10.11:_ZNK13PTimeInterval7GetDaysEv
libpt.so.2.10.11:_ZNK13PTimeInterval7PrintOnERSo
libpt.so.2.10.11:_ZNK13PTimeInterval8AsStringEiNS_7FormatsEi
libpt.so.2.10.11:_ZNK13PTimeInterval8GetHoursEv
libpt.so.2.10.11:_ZNK13PTimeIntervaldvERKS_
libpt.so.2.10.11:_ZNK13PTimeIntervaldvEi
libpt.so.2.10.11:_ZNK13PTimeIntervaleqERKS_
libpt.so.2.10.11:_ZNK13PTimeIntervaleqEl
libpt.so.2.10.11:_ZNK13PTimeIntervalgeERKS_
libpt.so.2.10.11:_ZNK13PTimeIntervalgeEl
libpt.so.2.10.11:_ZNK13PTimeIntervalgtERKS_
libpt.so.2.10.11:_ZNK13PTimeIntervalgtEl
libpt.so.2.10.11:_ZNK13PTimeIntervalleERKS_
libpt.so.2.10.11:_ZNK13PTimeIntervalleEl
libpt.so.2.10.11:_ZNK13PTimeIntervalltERKS_
libpt.so.2.10.11:_ZNK13PTimeIntervalltEl
libpt.so.2.10.11:_ZNK13PTimeIntervalmiERKS_
libpt.so.2.10.11:_ZNK13PTimeIntervalmlEi
libpt.so.2.10.11:_ZNK13PTimeIntervalneERKS_
libpt.so.2.10.11:_ZNK13PTimeIntervalneEl
libpt.so.2.10.11:_ZNK13PTimeIntervalngEv
libpt.so.2.10.11:_ZNK13PTimeIntervalplERKS_
libpt.so.2.10.11:_ZNK13PVideoChannel6IsOpenEv
libpt.so.2.10.11:_ZNK13PVideoChannel7GetNameEv
libpt.so.2.10.11:_ZNK14PASN_BMPString13GetDataLengthEv
libpt.so.2.10.11:_ZNK14PASN_BMPString15GetTypeAsStringEv
libpt.so.2.10.11:_ZNK14PASN_BMPString5CloneEv
libpt.so.2.10.11:_ZNK14PASN_BMPString6EncodeER11PASN_Stream
libpt.so.2.10.11:_ZNK14PASN_BMPString7CompareERK7PObject
libpt.so.2.10.11:_ZNK14PASN_BMPString7PrintOnERSo
libpt.so.2.10.11:_ZNK14PASN_BMPString9EncodeBERER11PBER_Stream
libpt.so.2.10.11:_ZNK14PASN_BMPString9EncodePERER11PPER_Stream
libpt.so.2.10.11:_ZNK14PASN_BitString13GetDataLengthEv
libpt.so.2.10.11:_ZNK14PASN_BitString15GetTypeAsStringEv
libpt.so.2.10.11:_ZNK14PASN_BitString29EncodeSequenceExtensionBitmapER11PPER_Stream
libpt.so.2.10.11:_ZNK14PASN_BitString5CloneEv
libpt.so.2.10.11:_ZNK14PASN_BitString6EncodeER11PASN_Stream
libpt.so.2.10.11:_ZNK14PASN_BitString7CompareERK7PObject
libpt.so.2.10.11:_ZNK14PASN_BitString7PrintOnERSo
libpt.so.2.10.11:_ZNK14PASN_BitString9EncodeBERER11PBER_Stream
libpt.so.2.10.11:_ZNK14PASN_BitString9EncodePERER11PPER_Stream
libpt.so.2.10.11:_ZNK14PASN_BitStringixEi
libpt.so.2.10.11:_ZNK14PASN_IA5String15GetTypeAsStringEv
libpt.so.2.10.11:_ZNK14PASN_IA5String5CloneEv
libpt.so.2.10.11:_ZNK14PAbstractArray14PrintElementOnERSoi
libpt.so.2.10.11:_ZNK14PAbstractArray7CompareERK7PObject
libpt.so.2.10.11:_ZNK14PAbstractArray7PrintOnERSo
libpt.so.2.10.11:_ZNK14PHTTPAuthority8IsActiveEv
libpt.so.2.10.11:_ZNK14PHTTPDateField8NewFieldEv
libpt.so.2.10.11:_ZNK14PHTTPDateField9ValidatedERK7PStringR13PStringStream
libpt.so.2.10.11:_ZNK14PHashTableInfo16GetElementsIndexEPK7PObjectbb
libpt.so.2.10.11:_ZNK14PPluginManager14GetPluginTypesEv
libpt.so.2.10.11:_ZNK14PPluginManager19CreatePluginsDeviceERK7PStringS2_i
libpt.so.2.10.11:_ZNK14PPluginManager19GetPluginsProvidingERK7PString
libpt.so.2.10.11:_ZNK14PPluginManager20GetServiceDescriptorERK7PStringS2_
libpt.so.2.10.11:_ZNK14PPluginManager21GetPluginsDeviceNamesERK7PStringS2_i
libpt.so.2.10.11:_ZNK14PPluginManager25CreatePluginsDeviceByNameERK7PStringS2_iS2_
libpt.so.2.10.11:_ZNK14PPluginManager28GetPluginsDeviceCapabilitiesERK7PStringS2_S2_Pv
libpt.so.2.10.11:_ZNK14PRFC1155_Gauge5CloneEv
libpt.so.2.10.11:_ZNK14PSNMP_Trap_PDU13GetDataLengthEv
libpt.so.2.10.11:_ZNK14PSNMP_Trap_PDU5CloneEv
libpt.so.2.10.11:_ZNK14PSNMP_Trap_PDU6EncodeER11PASN_Stream
libpt.so.2.10.11:_ZNK14PSNMP_Trap_PDU7CompareERK7PObject
libpt.so.2.10.11:_ZNK14PSNMP_Trap_PDU7PrintOnERSo
libpt.so.2.10.11:_ZNK14PSSLPrivateKey7GetDataEv
libpt.so.2.10.11:_ZNK14PSSLPrivateKey8AsStringEv
libpt.so.2.10.11:_ZNK14PSerialChannel11GetDataBitsEv
libpt.so.2.10.11:_ZNK14PSerialChannel11GetStopBitsEv
libpt.so.2.10.11:_ZNK14PSerialChannel19GetInputFlowControlEv
libpt.so.2.10.11:_ZNK14PSerialChannel20GetOutputFlowControlEv
libpt.so.2.10.11:_ZNK14PSerialChannel8GetSpeedEv
libpt.so.2.10.11:_ZNK14PSerialChannel9GetParityEv
libpt.so.2.10.11:_ZNK14PStringOptions10GetBooleanERK15PCaselessStringb
libpt.so.2.10.11:_ZNK14PStringOptions10GetIntegerERK15PCaselessStringl
libpt.so.2.10.11:_ZNK14PStringOptions7GetRealERK15PCaselessStringd
libpt.so.2.10.11:_ZNK14PStringOptions9GetStringERK15PCaselessStringPKc
libpt.so.2.10.11:_ZNK15PCaselessString15InternalCompareEic
libpt.so.2.10.11:_ZNK15PCaselessString15InternalCompareEiiPKc
libpt.so.2.10.11:_ZNK15PCaselessString5CloneEv
libpt.so.2.10.11:_ZNK15PConsoleChannel7GetNameEv
libpt.so.2.10.11:_ZNK15PHTTPFieldArray10GetHTMLTagER5PHTML
libpt.so.2.10.11:_ZNK15PHTTPFieldArray12SaveToConfigER7PConfig
libpt.so.2.10.11:_ZNK15PHTTPFieldArray16ExpandFieldNamesER7PStringiRi
libpt.so.2.10.11:_ZNK15PHTTPFieldArray17SetArrayFieldNameEi
libpt.so.2.10.11:_ZNK15PHTTPFieldArray18AddArrayControlBoxER5PHTMLi
libpt.so.2.10.11:_ZNK15PHTTPFieldArray7GetSizeEv
libpt.so.2.10.11:_ZNK15PHTTPFieldArray8NewFieldEv
libpt.so.2.10.11:_ZNK15PHTTPRadioField10GetHTMLTagER5PHTML
libpt.so.2.10.11:_ZNK15PHTTPRadioField12GetHTMLInputERK7PString
libpt.so.2.10.11:_ZNK15PHTTPRadioField8GetValueEb
libpt.so.2.10.11:_ZNK15PHTTPRadioField8NewFieldEv
libpt.so.2.10.11:_ZNK15PHTTPSimpleAuth5CloneEv
libpt.so.2.10.11:_ZNK15PHTTPSimpleAuth8GetRealmERK12PHTTPRequest
libpt.so.2.10.11:_ZNK15PHTTPSimpleAuth8IsActiveEv
libpt.so.2.10.11:_ZNK15PHTTPSimpleAuth8ValidateERK12PHTTPRequestRK7PString
libpt.so.2.10.11:_ZNK15PRFC1155_Opaque5CloneEv
libpt.so.2.10.11:_ZNK15PReadWriteMutex12InternalWaitER10PSemaphore
libpt.so.2.10.11:_ZNK15PSSLCertificate7GetDataEv
libpt.so.2.10.11:_ZNK15PSSLCertificate8AsStringEv
libpt.so.2.10.11:_ZNK15PSafeCollection12DeleteObjectEP7PObject
libpt.so.2.10.11:_ZNK15PSafeCollection7GetSizeEv
libpt.so.2.10.11:_ZNK15PSocksUDPSocket5CloneEv
libpt.so.2.10.11:_ZNK15PSortedListInfo11OrderSelectEP18PSortedListElementi
libpt.so.2.10.11:_ZNK15PSortedListInfo11PredecessorEPK18PSortedListElement
libpt.so.2.10.11:_ZNK15PSortedListInfo9SuccessorEPK18PSortedListElement
libpt.so.2.10.11:_ZNK15PStringToString11ToCharArrayEbP10PCharArray
libpt.so.2.10.11:_ZNK15PVXMLChannelPCM14IsSilenceFrameEPKvi
libpt.so.2.10.11:_ZNK15PVideoFrameInfo10GetSarSizeERjS0_
libpt.so.2.10.11:_ZNK15PVideoFrameInfo11GetSarWidthEv
libpt.so.2.10.11:_ZNK15PVideoFrameInfo12GetFrameRateEv
libpt.so.2.10.11:_ZNK15PVideoFrameInfo12GetFrameSizeERjS0_
libpt.so.2.10.11:_ZNK15PVideoFrameInfo12GetSarHeightEv
libpt.so.2.10.11:_ZNK15PVideoFrameInfo13GetFrameWidthEv
libpt.so.2.10.11:_ZNK15PVideoFrameInfo14GetFrameHeightEv
libpt.so.2.10.11:_ZNK15PVideoFrameInfo15GetColourFormatEv
libpt.so.2.10.11:_ZNK15PVideoFrameInfo7CompareERK7PObject
libpt.so.2.10.11:_ZNK15PVideoFrameInfo7PrintOnERSo
libpt.so.2.10.11:_ZNK16PASN_Enumeration13GetDataLengthEv
libpt.so.2.10.11:_ZNK16PASN_Enumeration14GetValueByNameE7PString
libpt.so.2.10.11:_ZNK16PASN_Enumeration15GetTypeAsStringEv
libpt.so.2.10.11:_ZNK16PASN_Enumeration5CloneEv
libpt.so.2.10.11:_ZNK16PASN_Enumeration6EncodeER11PASN_Stream
libpt.so.2.10.11:_ZNK16PASN_Enumeration7CompareERK7PObject
libpt.so.2.10.11:_ZNK16PASN_Enumeration7PrintOnERSo
libpt.so.2.10.11:_ZNK16PASN_Enumeration9EncodePERER11PPER_Stream
libpt.so.2.10.11:_ZNK16PASN_Enumeration9EncodeXERER11PXER_Stream
libpt.so.2.10.11:_ZNK16PASN_OctetString13DecodeSubTypeER11PASN_Object
libpt.so.2.10.11:_ZNK16PASN_OctetString13GetDataLengthEv
libpt.so.2.10.11:_ZNK16PASN_OctetString15GetTypeAsStringEv
libpt.so.2.10.11:_ZNK16PASN_OctetString5CloneEv
libpt.so.2.10.11:_ZNK16PASN_OctetString6EncodeER11PASN_Stream
libpt.so.2.10.11:_ZNK16PASN_OctetString7CompareERK7PObject
libpt.so.2.10.11:_ZNK16PASN_OctetString7PrintOnERSo
libpt.so.2.10.11:_ZNK16PASN_OctetString8AsStringEv
libpt.so.2.10.11:_ZNK16PASN_OctetString9EncodePERER11PPER_Stream
libpt.so.2.10.11:_ZNK16PColourConverter15GetDstFrameSizeERjS0_
libpt.so.2.10.11:_ZNK16PColourConverter15GetSrcFrameSizeERjS0_
libpt.so.2.10.11:_ZNK16PColourConverter7PrintOnERSo
libpt.so.2.10.11:_ZNK16PHTTPSelectField10GetHTMLTagER5PHTML
libpt.so.2.10.11:_ZNK16PHTTPSelectField8GetValueEb
libpt.so.2.10.11:_ZNK16PHTTPSelectField8NewFieldEv
libpt.so.2.10.11:_ZNK16PHTTPStringField10GetHTMLTagER5PHTML
libpt.so.2.10.11:_ZNK16PHTTPStringField8GetValueEb
libpt.so.2.10.11:_ZNK16PHTTPStringField8NewFieldEv
libpt.so.2.10.11:_ZNK16PIndirectChannel12GetErrorTextEN8PChannel10ErrorGroupE
libpt.so.2.10.11:_ZNK16PIndirectChannel14GetReadChannelEv
libpt.so.2.10.11:_ZNK16PIndirectChannel15GetWriteChannelEv
libpt.so.2.10.11:_ZNK16PIndirectChannel18GetBaseReadChannelEv
libpt.so.2.10.11:_ZNK16PIndirectChannel19GetBaseWriteChannelEv
libpt.so.2.10.11:_ZNK16PIndirectChannel6IsOpenEv
libpt.so.2.10.11:_ZNK16PIndirectChannel7CompareERK7PObject
libpt.so.2.10.11:_ZNK16PIndirectChannel7GetNameEv
libpt.so.2.10.11:_ZNK16PRFC1155_Counter5CloneEv
libpt.so.2.10.11:_ZNK16PServiceMacro_OS9TranslateER12PHTTPRequestRK7PStringS4_
libpt.so.2.10.11:_ZNK16PVXMLChannelG72914IsSilenceFrameEPKvi
libpt.so.2.10.11:_ZNK16PXMLRPCArrayBase7GetSizeEv
libpt.so.2.10.11:_ZNK16PXMLRPCArrayBase7IsArrayEv
libpt.so.2.10.11:_ZNK16PXMLRPCArrayBase7PrintOnERSo
libpt.so.2.10.11:_ZNK17PGloballyUniqueID12HashFunctionEv
libpt.so.2.10.11:_ZNK17PGloballyUniqueID5CloneEv
libpt.so.2.10.11:_ZNK17PGloballyUniqueID6IsNULLEv
libpt.so.2.10.11:_ZNK17PGloballyUniqueID7PrintOnERSo
libpt.so.2.10.11:_ZNK17PGloballyUniqueID8AsStringEv
libpt.so.2.10.11:_ZNK17PHTTPBooleanField10GetHTMLTagER5PHTML
libpt.so.2.10.11:_ZNK17PHTTPBooleanField12GetHTMLInputERK7PString
libpt.so.2.10.11:_ZNK17PHTTPBooleanField12SaveToConfigER7PConfig
libpt.so.2.10.11:_ZNK17PHTTPBooleanField8GetValueEb
libpt.so.2.10.11:_ZNK17PHTTPBooleanField8NewFieldEv
libpt.so.2.10.11:_ZNK17PHTTPIntegerField10GetHTMLTagER5PHTML
libpt.so.2.10.11:_ZNK17PHTTPIntegerField12SaveToConfigER7PConfig
libpt.so.2.10.11:_ZNK17PHTTPIntegerField8GetValueEb
libpt.so.2.10.11:_ZNK17PHTTPIntegerField8NewFieldEv
libpt.so.2.10.11:_ZNK17PHTTPIntegerField9ValidatedERK7PStringR13PStringStream
libpt.so.2.10.11:_ZNK17PInterfaceMonitor16GetInterfaceInfoERK7PStringRN9PIPSocket14InterfaceEntryE
libpt.so.2.10.11:_ZNK17PInternetProtocol17GetDefaultServiceEv
libpt.so.2.10.11:_ZNK17PInternetProtocol19GetLastResponseCodeEv
libpt.so.2.10.11:_ZNK17PInternetProtocol19GetLastResponseInfoEv
libpt.so.2.10.11:_ZNK17PInternetProtocol9GetSocketEv
libpt.so.2.10.11:_ZNK17PMonitoredSockets16GetSocketAddressERKNS_10SocketInfoERN9PIPSocket7AddressERtb
libpt.so.2.10.11:_ZNK17PRemoteConnection12HashFunctionEv
libpt.so.2.10.11:_ZNK17PRemoteConnection7CompareERK7PObject
libpt.so.2.10.11:_ZNK17PRemoteConnection9GetStatusEv
libpt.so.2.10.11:_ZNK17PSNMP_VarBindList12CreateObjectEv
libpt.so.2.10.11:_ZNK17PSNMP_VarBindList5CloneEv
libpt.so.2.10.11:_ZNK17PSNMP_VarBindListixEi
libpt.so.2.10.11:_ZNK17PServiceMacro_Get9TranslateER12PHTTPRequestRK7PStringS4_
libpt.so.2.10.11:_ZNK17PServiceMacro_URL9TranslateER12PHTTPRequestRK7PStringS4_
libpt.so.2.10.11:_ZNK17PSortedStringList15GetStringsIndexERK7PString
libpt.so.2.10.11:_ZNK17PSortedStringList19GetNextStringsIndexERK7PString
libpt.so.2.10.11:_ZNK17PSortedStringList20InternalStringSelectEPKciP18PSortedListElementRS3_
libpt.so.2.10.11:_ZNK17PVXMLChannelG723114IsSilenceFrameEPKvi
libpt.so.2.10.11:_ZNK17PVideoInputDevice14GetCaptureModeEv
libpt.so.2.10.11:_ZNK17PVideoInputDevice15CanCaptureVideoEv
libpt.so.2.10.11:_ZNK17PXMLRPCStructBase7PrintOnERSo
libpt.so.2.10.11:_ZNK18PASN_GeneralString15GetTypeAsStringEv
libpt.so.2.10.11:_ZNK18PASN_GeneralString5CloneEv
libpt.so.2.10.11:_ZNK18PASN_NumericString15GetTypeAsStringEv
libpt.so.2.10.11:_ZNK18PASN_NumericString5CloneEv
libpt.so.2.10.11:_ZNK18PASN_UniversalTime8GetValueEv
libpt.so.2.10.11:_ZNK18PASN_VisibleString15GetTypeAsStringEv
libpt.so.2.10.11:_ZNK18PASN_VisibleString5CloneEv
libpt.so.2.10.11:_ZNK18PHTTPMultiSimpAuth5CloneEv
libpt.so.2.10.11:_ZNK18PHTTPMultiSimpAuth8GetRealmERK12PHTTPRequest
libpt.so.2.10.11:_ZNK18PHTTPMultiSimpAuth8IsActiveEv
libpt.so.2.10.11:_ZNK18PHTTPMultiSimpAuth8ValidateERK12PHTTPRequestRK7PString
libpt.so.2.10.11:_ZNK18PHTTPPasswordField10GetHTMLTagER5PHTML
libpt.so.2.10.11:_ZNK18PHTTPPasswordField8GetValueEb
libpt.so.2.10.11:_ZNK18PHTTPPasswordField8NewFieldEv
libpt.so.2.10.11:_ZNK18PRFC1155_IpAddress5CloneEv
libpt.so.2.10.11:_ZNK18PRFC1155_TimeTicks5CloneEv
libpt.so.2.10.11:_ZNK18PRegularExpression12GetErrorCodeEv
libpt.so.2.10.11:_ZNK18PRegularExpression12GetErrorTextEv
libpt.so.2.10.11:_ZNK18PRegularExpression7ExecuteEPKcR12PScalarArrayIiES4_i
libpt.so.2.10.11:_ZNK18PRegularExpression7ExecuteEPKcR12PScalarArrayIiEi
libpt.so.2.10.11:_ZNK18PRegularExpression7ExecuteEPKcR12PStringArrayi
libpt.so.2.10.11:_ZNK18PRegularExpression7ExecuteEPKcRiS2_i
libpt.so.2.10.11:_ZNK18PRegularExpression7ExecuteEPKcRii
libpt.so.2.10.11:_ZNK18PRegularExpression7ExecuteERK7PStringR12PScalarArrayIiES5_i
libpt.so.2.10.11:_ZNK18PRegularExpression7ExecuteERK7PStringR12PScalarArrayIiEi
libpt.so.2.10.11:_ZNK18PRegularExpression7ExecuteERK7PStringRiS3_i
libpt.so.2.10.11:_ZNK18PRegularExpression7ExecuteERK7PStringRii
libpt.so.2.10.11:_ZNK18PRegularExpression7PrintOnERSo
libpt.so.2.10.11:_ZNK18PServiceMacro_Time9TranslateER12PHTTPRequestRK7PStringS4_
libpt.so.2.10.11:_ZNK18PSmartPtrInspector9GetTargetEv
libpt.so.2.10.11:_ZNK18PVideoOutputDevice11GetPositionERiS0_
libpt.so.2.10.11:_ZNK18PVideoOutputDevice15CanCaptureVideoEv
libpt.so.2.10.11:_ZNK19PASNUnsignedInteger11GetUnsignedEv
libpt.so.2.10.11:_ZNK19PASNUnsignedInteger7PrintOnERSo
libpt.so.2.10.11:_ZNK19PASNUnsignedInteger9GetStringEv
libpt.so.2.10.11:_ZNK19PAbstractDictionary13AbstractGetAtERK7PObject
libpt.so.2.10.11:_ZNK19PAbstractDictionary14GetValuesIndexERK7PObject
libpt.so.2.10.11:_ZNK19PAbstractDictionary15AbstractGetKeysER13PArrayObjects
libpt.so.2.10.11:_ZNK19PAbstractDictionary15GetObjectsIndexEPK7PObject
libpt.so.2.10.11:_ZNK19PAbstractDictionary5GetAtEi
libpt.so.2.10.11:_ZNK19PAbstractDictionary7PrintOnERSo
libpt.so.2.10.11:_ZNK19PAbstractDictionary8GetRefAtERK7PObject
libpt.so.2.10.11:_ZNK19PAbstractSortedList11ValueSelectEPK18PSortedListElementRK7PObjectPS2_
libpt.so.2.10.11:_ZNK19PAbstractSortedList14GetValuesIndexERK7PObject
libpt.so.2.10.11:_ZNK19PAbstractSortedList15GetObjectsIndexEPK7PObject
libpt.so.2.10.11:_ZNK19PAbstractSortedList15GetObjectsIndexEPK7PObjectRP18PSortedListElement
libpt.so.2.10.11:_ZNK19PAbstractSortedList5GetAtEi
libpt.so.2.10.11:_ZNK19PAbstractSortedList7CompareERK7PObject
libpt.so.2.10.11:_ZNK19PHTTPCompositeField10GetHTMLTagER5PHTML
libpt.so.2.10.11:_ZNK19PHTTPCompositeField10LocateNameERK7PString
libpt.so.2.10.11:_ZNK19PHTTPCompositeField11GetAllNamesER12PStringArray
libpt.so.2.10.11:_ZNK19PHTTPCompositeField11ValidateAllERK15PStringToStringR13PStringStream
libpt.so.2.10.11:_ZNK19PHTTPCompositeField12GetHTMLInputERK7PString
libpt.so.2.10.11:_ZNK19PHTTPCompositeField12SaveToConfigER7PConfig
libpt.so.2.10.11:_ZNK19PHTTPCompositeField14GetHTMLHeadingER5PHTML
libpt.so.2.10.11:_ZNK19PHTTPCompositeField16ExpandFieldNamesER7PStringiRi
libpt.so.2.10.11:_ZNK19PHTTPCompositeField7GetSizeEv
libpt.so.2.10.11:_ZNK19PHTTPCompositeField8GetValueEb
libpt.so.2.10.11:_ZNK19PHTTPCompositeField8NewFieldEv
libpt.so.2.10.11:_ZNK19PHTTPConnectionInfo12IsCompatibleEii
libpt.so.2.10.11:_ZNK19PRFC1155_ObjectName5CloneEv
libpt.so.2.10.11:_ZNK19PSNMPVarBindingList11GetObjectIDEi
libpt.so.2.10.11:_ZNK19PSNMPVarBindingList7GetSizeEv
libpt.so.2.10.11:_ZNK19PSNMPVarBindingList7PrintOnERSo
libpt.so.2.10.11:_ZNK19PSNMPVarBindingList8GetIndexERK7PString
libpt.so.2.10.11:_ZNK19PSNMPVarBindingListixEi
libpt.so.2.10.11:_ZNK19PServiceMacro_Query9TranslateER12PHTTPRequestRK7PStringS4_
libpt.so.2.10.11:_ZNK19PXMLRPCVariableBase7GetSizeEv
libpt.so.2.10.11:_ZNK19PXMLRPCVariableBase7IsArrayEv
libpt.so.2.10.11:_ZNK19PXMLRPCVariableBase8ToBase64ER14PAbstractArray
libpt.so.2.10.11:_ZNK19PXMLRPCVariableBase8ToStringEi
libpt.so.2.10.11:_ZNK19PXMLRPCVariableBase9GetStructEi
libpt.so.2.10.11:_ZNK20PASN_GeneralisedTime8GetValueEv
libpt.so.2.10.11:_ZNK20PASN_PrintableString15GetTypeAsStringEv
libpt.so.2.10.11:_ZNK20PASN_PrintableString5CloneEv
libpt.so.2.10.11:_ZNK20PDevicePluginFactoryI10PNatMethod7PStringE6Worker6CreateERKS1_
libpt.so.2.10.11:_ZNK20PDevicePluginFactoryI13PSoundChannel7PStringE6Worker6CreateERKS1_
libpt.so.2.10.11:_ZNK20PDevicePluginFactoryI17PVideoInputDevice7PStringE6Worker6CreateERKS1_
libpt.so.2.10.11:_ZNK20PDevicePluginFactoryI18PVideoOutputDevice7PStringE6Worker6CreateERKS1_
libpt.so.2.10.11:_ZNK20PIpAccessControlList4FindEN9PIPSocket7AddressE
libpt.so.2.10.11:_ZNK20PIpAccessControlList9IsAllowedEN9PIPSocket7AddressE
libpt.so.2.10.11:_ZNK20PIpAccessControlList9IsAllowedER10PTCPSocket
libpt.so.2.10.11:_ZNK20PSNMP_GetRequest_PDU5CloneEv
libpt.so.2.10.11:_ZNK20PSNMP_SetRequest_PDU5CloneEv
libpt.so.2.10.11:_ZNK20PServiceMacro_Header9TranslateER12PHTTPRequestRK7PStringS4_
libpt.so.2.10.11:_ZNK20PServiceMacro_PeerIP9TranslateER12PHTTPRequestRK7PStringS4_
libpt.so.2.10.11:_ZNK20PServiceMacro_UpTime9TranslateER12PHTTPRequestRK7PStringS4_
libpt.so.2.10.11:_ZNK20PWAVFileConverterPCM11GetPositionERK8PWAVFile
libpt.so.2.10.11:_ZNK20PWAVFileConverterPCM13GetSampleSizeERK8PWAVFile
libpt.so.2.10.11:_ZNK20PWAVFileConverterPCM9GetFormatERK8PWAVFile
libpt.so.2.10.11:_ZNK21PIpAccessControlEntry7CompareERK7PObject
libpt.so.2.10.11:_ZNK21PIpAccessControlEntry7PrintOnERSo
libpt.so.2.10.11:_ZNK21PIpAccessControlEntry8AsStringEv
libpt.so.2.10.11:_ZNK21PRFC1155_ObjectSyntax5CloneEv
libpt.so.2.10.11:_ZNK21PRFC1155_ObjectSyntaxcvRK21PRFC1155_SimpleSyntaxEv
libpt.so.2.10.11:_ZNK21PRFC1155_ObjectSyntaxcvRK26PRFC1155_ApplicationSyntaxEv
libpt.so.2.10.11:_ZNK21PRFC1155_SimpleSyntax5CloneEv
libpt.so.2.10.11:_ZNK21PSNMP_GetResponse_PDU5CloneEv
libpt.so.2.10.11:_ZNK21PSafePtrMultiThreaded7CompareERK7PObject
libpt.so.2.10.11:_ZNK21PServiceMacro_IfInURL9TranslateER12PHTTPRequestRK7PStringS4_
libpt.so.2.10.11:_ZNK21PServiceMacro_IfQuery9TranslateER12PHTTPRequestRK7PStringS4_
libpt.so.2.10.11:_ZNK21PServiceMacro_Include9TranslateER12PHTTPRequestRK7PStringS4_
libpt.so.2.10.11:_ZNK21PServiceMacro_LocalIP9TranslateER12PHTTPRequestRK7PStringS4_
libpt.so.2.10.11:_ZNK21PServiceMacro_Machine9TranslateER12PHTTPRequestRK7PStringS4_
libpt.so.2.10.11:_ZNK21PServiceMacro_RegInfo9TranslateER12PHTTPRequestRK7PStringS4_
libpt.so.2.10.11:_ZNK21PServiceMacro_RegUser9TranslateER12PHTTPRequestRK7PStringS4_
libpt.so.2.10.11:_ZNK21PServiceMacro_Version9TranslateER12PHTTPRequestRK7PStringS4_
libpt.so.2.10.11:_ZNK21PSoundChannel_WAVFile11GetChannelsEv
libpt.so.2.10.11:_ZNK21PSoundChannel_WAVFile13GetSampleRateEv
libpt.so.2.10.11:_ZNK21PSoundChannel_WAVFile13GetSampleSizeEv
libpt.so.2.10.11:_ZNK21PSoundChannel_WAVFile6IsOpenEv
libpt.so.2.10.11:_ZNK21PSoundChannel_WAVFile7GetNameEv
libpt.so.2.10.11:_ZNK22PASN_ConstrainedObject16ConstraintEncodeER11PPER_Streamj
libpt.so.2.10.11:_ZNK22PASN_ConstrainedObject23ConstrainedLengthEncodeER11PPER_Streamj
libpt.so.2.10.11:_ZNK22PASN_ConstrainedString13GetDataLengthEv
libpt.so.2.10.11:_ZNK22PASN_ConstrainedString6EncodeER11PASN_Stream
libpt.so.2.10.11:_ZNK22PASN_ConstrainedString7CompareERK7PObject
libpt.so.2.10.11:_ZNK22PASN_ConstrainedString7PrintOnERSo
libpt.so.2.10.11:_ZNK22PASN_ConstrainedString9EncodeBERER11PBER_Stream
libpt.so.2.10.11:_ZNK22PASN_ConstrainedString9EncodePERER11PPER_Stream
libpt.so.2.10.11:_ZNK22PMonitoredSocketBundle10GetAddressERK7PStringRN9PIPSocket7AddressERtb
libpt.so.2.10.11:_ZNK22PServiceMacro_LongDate9TranslateER12PHTTPRequestRK7PStringS4_
libpt.so.2.10.11:_ZNK22PServiceMacro_LongTime9TranslateER12PHTTPRequestRK7PStringS4_
libpt.so.2.10.11:_ZNK22PServiceMacro_PeerHost9TranslateER12PHTTPRequestRK7PStringS4_
libpt.so.2.10.11:_ZNK22PServiceMacro_RegEmail9TranslateER12PHTTPRequestRK7PStringS4_
libpt.so.2.10.11:_ZNK22PSingleMonitoredSocket10GetAddressERK7PStringRN9PIPSocket7AddressERtb
libpt.so.2.10.11:_ZNK22PSingleMonitoredSocket11IsInterfaceERK7PString
libpt.so.2.10.11:_ZNK22PVideoOutputDevice_SDL14GetDeviceNamesEv
libpt.so.2.10.11:_ZNK22PVideoOutputDevice_SDL8GetTitleEv
libpt.so.2.10.11:_ZNK22PVideoOutputDevice_Shm14GetDeviceNamesEv
libpt.so.2.10.11:_ZNK23PInterfaceMonitorClient16GetInterfaceInfoERK7PStringRN9PIPSocket14InterfaceEntryE
libpt.so.2.10.11:_ZNK23PMonitoredSocketChannel6IsOpenEv
libpt.so.2.10.11:_ZNK23PRFC1155_NetworkAddress5CloneEv
libpt.so.2.10.11:_ZNK23PRFC1155_NetworkAddresscvRK18PRFC1155_IpAddressEv
libpt.so.2.10.11:_ZNK23PServiceMacro_BuildDate9TranslateER12PHTTPRequestRK7PStringS4_
libpt.so.2.10.11:_ZNK23PServiceMacro_Copyright9TranslateER12PHTTPRequestRK7PStringS4_
libpt.so.2.10.11:_ZNK23PServiceMacro_LocalHost9TranslateER12PHTTPRequestRK7PStringS4_
libpt.so.2.10.11:_ZNK23PServiceMacro_LocalPort9TranslateER12PHTTPRequestRK7PStringS4_
libpt.so.2.10.11:_ZNK23PServiceMacro_ShortDate9TranslateER12PHTTPRequestRK7PStringS4_
libpt.so.2.10.11:_ZNK23PServiceMacro_ShortTime9TranslateER12PHTTPRequestRK7PStringS4_
libpt.so.2.10.11:_ZNK23PServiceMacro_StartTime9TranslateER12PHTTPRequestRK7PStringS4_
libpt.so.2.10.11:_ZNK23PXMLRPCArrayObjectsBase8ToStringEi
libpt.so.2.10.11:_ZNK24PSNMP_GetNextRequest_PDU5CloneEv
libpt.so.2.10.11:_ZNK24PServiceMacro_IfNotInURL9TranslateER12PHTTPRequestRK7PStringS4_
libpt.so.2.10.11:_ZNK24PServiceMacro_MediumDate9TranslateER12PHTTPRequestRK7PStringS4_
libpt.so.2.10.11:_ZNK24PServiceMacro_RegCompany9TranslateER12PHTTPRequestRK7PStringS4_
libpt.so.2.10.11:_ZNK24PStandardColourConverter11SBGGR8toRGBEPKhPhPi
libpt.so.2.10.11:_ZNK24PStandardColourConverter12YUV420PtoRGBEPKhPhPijjj
libpt.so.2.10.11:_ZNK24PStandardColourConverter13GreytoYUV420PEPKhPhPi
libpt.so.2.10.11:_ZNK24PStandardColourConverter14SwapRedAndBlueEPKhPhPijj
libpt.so.2.10.11:_ZNK24PStandardColourConverter14YUV422WithCropEPKhPhb
libpt.so.2.10.11:_ZNK24PStandardColourConverter15UYVY422WithCropEPKhPh
libpt.so.2.10.11:_ZNK24PStandardColourConverter15YUV420PtoRGB565EPKhPhPi
libpt.so.2.10.11:_ZNK24PStandardColourConverter20RGBtoYUV420PSameSizeEPKhPhjjj
libpt.so.2.10.11:_ZNK24PStandardColourConverter20RGBtoYUV420PWithCropEPKhPhjjj
libpt.so.2.10.11:_ZNK24PStandardColourConverter21GreytoYUV420PSameSizeEPKhPh
libpt.so.2.10.11:_ZNK24PStandardColourConverter21GreytoYUV420PWithCropEPKhPh
libpt.so.2.10.11:_ZNK24PStandardColourConverter21YUY2toYUV420PSameSizeEPKhPh
libpt.so.2.10.11:_ZNK24PStandardColourConverter21YUY2toYUV420PWithGrowEPKhPh
libpt.so.2.10.11:_ZNK24PStandardColourConverter23YUY2toYUV420PWithShrinkEPKhPh
libpt.so.2.10.11:_ZNK24PStandardColourConverter24UYVY422toYUV420PSameSizeEPKhPh
libpt.so.2.10.11:_ZNK24PStandardColourConverter24UYVY422toYUV420PWithCropEPKhPh
libpt.so.2.10.11:_ZNK24P_JPEG_Grey_Registration6CreateERK15PVideoFrameInfoS2_
libpt.so.2.10.11:_ZNK25PHTTPClientAuthentication12GetAuthParamERK7PStringPKc
libpt.so.2.10.11:_ZNK25PHTTPClientAuthentication5AsHexERK10PBYTEArray
libpt.so.2.10.11:_ZNK25PHTTPClientAuthentication5AsHexERN15PMessageDigest54CodeE
libpt.so.2.10.11:_ZNK25PHTTPClientAuthentication7CompareERK7PObject
libpt.so.2.10.11:_ZNK25PServiceMacro_MonitorInfo9TranslateER12PHTTPRequestRK7PStringS4_
libpt.so.2.10.11:_ZNK25PServiceMacro_ProductName9TranslateER12PHTTPRequestRK7PStringS4_
libpt.so.2.10.11:_ZNK25P_JPEG_BGR24_Registration6CreateERK15PVideoFrameInfoS2_
libpt.so.2.10.11:_ZNK25P_JPEG_RGB24_Registration6CreateERK15PVideoFrameInfoS2_
libpt.so.2.10.11:_ZNK25P_MJPEG_Grey_Registration6CreateERK15PVideoFrameInfoS2_
libpt.so.2.10.11:_ZNK26PRFC1155_ApplicationSyntax5CloneEv
libpt.so.2.10.11:_ZNK26PRFC1155_ApplicationSyntaxcvRK14PRFC1155_GaugeEv
libpt.so.2.10.11:_ZNK26PRFC1155_ApplicationSyntaxcvRK15PRFC1155_OpaqueEv
libpt.so.2.10.11:_ZNK26PRFC1155_ApplicationSyntaxcvRK16PRFC1155_CounterEv
libpt.so.2.10.11:_ZNK26PRFC1155_ApplicationSyntaxcvRK18PRFC1155_TimeTicksEv
libpt.so.2.10.11:_ZNK26PRFC1155_ApplicationSyntaxcvRK23PRFC1155_NetworkAddressEv
libpt.so.2.10.11:_ZNK26PServiceMacro_LongDateTime9TranslateER12PHTTPRequestRK7PStringS4_
libpt.so.2.10.11:_ZNK26PServiceMacro_Manufacturer9TranslateER12PHTTPRequestRK7PStringS4_
libpt.so.2.10.11:_ZNK26PServiceMacro_Registration9TranslateER12PHTTPRequestRK7PStringS4_
libpt.so.2.10.11:_ZNK26PSynonymColourRegistration6CreateERK15PVideoFrameInfoS2_
libpt.so.2.10.11:_ZNK26P_BGR24_RGB24_Registration6CreateERK15PVideoFrameInfoS2_
libpt.so.2.10.11:_ZNK26P_BGR24_RGB32_Registration6CreateERK15PVideoFrameInfoS2_
libpt.so.2.10.11:_ZNK26P_BGR32_RGB24_Registration6CreateERK15PVideoFrameInfoS2_
libpt.so.2.10.11:_ZNK26P_BGR32_RGB32_Registration6CreateERK15PVideoFrameInfoS2_
libpt.so.2.10.11:_ZNK26P_MJPEG_BGR24_Registration6CreateERK15PVideoFrameInfoS2_
libpt.so.2.10.11:_ZNK26P_MJPEG_RGB24_Registration6CreateERK15PVideoFrameInfoS2_
libpt.so.2.10.11:_ZNK26P_RGB24_BGR24_Registration6CreateERK15PVideoFrameInfoS2_
libpt.so.2.10.11:_ZNK26P_RGB24_BGR32_Registration6CreateERK15PVideoFrameInfoS2_
libpt.so.2.10.11:_ZNK26P_RGB24_RGB32_Registration6CreateERK15PVideoFrameInfoS2_
libpt.so.2.10.11:_ZNK26P_RGB32_BGR24_Registration6CreateERK15PVideoFrameInfoS2_
libpt.so.2.10.11:_ZNK26P_RGB32_BGR32_Registration6CreateERK15PVideoFrameInfoS2_
libpt.so.2.10.11:_ZNK26P_RGB32_RGB24_Registration6CreateERK15PVideoFrameInfoS2_
libpt.so.2.10.11:_ZNK27PServiceMacro_ShortDateTime9TranslateER12PHTTPRequestRK7PStringS4_
libpt.so.2.10.11:_ZNK27PServiceMacro_SignedInclude9TranslateER12PHTTPRequestRK7PStringS4_
libpt.so.2.10.11:_ZNK27P_Grey_YUV420P_Registration6CreateERK15PVideoFrameInfoS2_
libpt.so.2.10.11:_ZNK27P_JPEG_YUV420P_Registration6CreateERK15PVideoFrameInfoS2_
libpt.so.2.10.11:_ZNK27P_SBGGR8_RGB24_Registration6CreateERK15PVideoFrameInfoS2_
libpt.so.2.10.11:_ZNK27P_YUY2_YUV420P_Registration6CreateERK15PVideoFrameInfoS2_
libpt.so.2.10.11:_ZNK28PServiceMacro_MediumDateTime9TranslateER12PHTTPRequestRK7PStringS4_
libpt.so.2.10.11:_ZNK28P_BGR24_YUV420P_Registration6CreateERK15PVideoFrameInfoS2_
libpt.so.2.10.11:_ZNK28P_BGR32_YUV420P_Registration6CreateERK15PVideoFrameInfoS2_
libpt.so.2.10.11:_ZNK28P_MJPEG_YUV420P_Registration6CreateERK15PVideoFrameInfoS2_
libpt.so.2.10.11:_ZNK28P_RGB24_YUV420P_Registration6CreateERK15PVideoFrameInfoS2_
libpt.so.2.10.11:_ZNK28P_RGB32_YUV420P_Registration6CreateERK15PVideoFrameInfoS2_
libpt.so.2.10.11:_ZNK28P_YUV420P_BGR24_Registration6CreateERK15PVideoFrameInfoS2_
libpt.so.2.10.11:_ZNK28P_YUV420P_BGR32_Registration6CreateERK15PVideoFrameInfoS2_
libpt.so.2.10.11:_ZNK28P_YUV420P_RGB16_Registration6CreateERK15PVideoFrameInfoS2_
libpt.so.2.10.11:_ZNK28P_YUV420P_RGB24_Registration6CreateERK15PVideoFrameInfoS2_
libpt.so.2.10.11:_ZNK28P_YUV420P_RGB32_Registration6CreateERK15PVideoFrameInfoS2_
libpt.so.2.10.11:_ZNK28P_YUV422_YUV422_Registration6CreateERK15PVideoFrameInfoS2_
libpt.so.2.10.11:_ZNK29PServiceMacro_InputsFromQuery9TranslateER12PHTTPRequestRK7PStringS4_
libpt.so.2.10.11:_ZNK29P_SBGGR8_YUV420P_Registration6CreateERK15PVideoFrameInfoS2_
libpt.so.2.10.11:_ZNK29P_UYV444_YUV420P_Registration6CreateERK15PVideoFrameInfoS2_
libpt.so.2.10.11:_ZNK29P_YUV420P_RGB565_Registration6CreateERK15PVideoFrameInfoS2_
libpt.so.2.10.11:_ZNK29P_YUV422_YUV420P_Registration6CreateERK15PVideoFrameInfoS2_
libpt.so.2.10.11:_ZNK30PDevicePluginServiceDescriptor18ValidateDeviceNameERK7PStringi
libpt.so.2.10.11:_ZNK30PDevicePluginServiceDescriptor21GetDeviceCapabilitiesERK7PStringPv
libpt.so.2.10.11:_ZNK30PHTTPClientBasicAuthentication7CompareERK7PObject
libpt.so.2.10.11:_ZNK30PHTTPClientBasicAuthentication9AuthoriseERN25PHTTPClientAuthentication10AuthObjectE
libpt.so.2.10.11:_ZNK30P_UYVY422_UYVY422_Registration6CreateERK15PVideoFrameInfoS2_
libpt.so.2.10.11:_ZNK30P_UYVY422_YUV420P_Registration6CreateERK15PVideoFrameInfoS2_
libpt.so.2.10.11:_ZNK30P_YUV411P_YUV420P_Registration6CreateERK15PVideoFrameInfoS2_
libpt.so.2.10.11:_ZNK30P_YUV420P_YUV411P_Registration6CreateERK15PVideoFrameInfoS2_
libpt.so.2.10.11:_ZNK30P_YUV420P_YUV420P_Registration6CreateERK15PVideoFrameInfoS2_
libpt.so.2.10.11:_ZNK31PHTTPClientDigestAuthentication7CompareERK7PObject
libpt.so.2.10.11:_ZNK31PHTTPClientDigestAuthentication9AuthoriseERN25PHTTPClientAuthentication10AuthObjectE
libpt.so.2.10.11:_ZNK4PCLI9BroadcastERK7PString
libpt.so.2.10.11:_ZNK4PDNS11NAPTRRecord7CompareERK7PObject
libpt.so.2.10.11:_ZNK4PDNS11NAPTRRecord7PrintOnERSo
libpt.so.2.10.11:_ZNK4PDNS12MXRecordList7PrintOnERSo
libpt.so.2.10.11:_ZNK4PDNS13SRVRecordList7PrintOnERSo
libpt.so.2.10.11:_ZNK4PDNS15NAPTRRecordList7PrintOnERSo
libpt.so.2.10.11:_ZNK4PDNS8MXRecord7CompareERK7PObject
libpt.so.2.10.11:_ZNK4PDNS8MXRecord7PrintOnERSo
libpt.so.2.10.11:_ZNK4PDNS9SRVRecord7CompareERK7PObject
libpt.so.2.10.11:_ZNK4PDNS9SRVRecord7PrintOnERSo
libpt.so.2.10.11:_ZNK4PURL10AsFilePathEv
libpt.so.2.10.11:_ZNK4PURL10GetPathStrEv
libpt.so.2.10.11:_ZNK4PURL12HashFunctionEv
libpt.so.2.10.11:_ZNK4PURL12LoadResourceER10PBYTEArrayRK7PString
libpt.so.2.10.11:_ZNK4PURL12LoadResourceER7PStringRKS0_
libpt.so.2.10.11:_ZNK4PURL13GetParametersEv
libpt.so.2.10.11:_ZNK4PURL14LegacyAsStringENS_9UrlFormatEPK16PURLLegacyScheme
libpt.so.2.10.11:_ZNK4PURL7CompareERK7PObject
libpt.so.2.10.11:_ZNK4PURL7PrintOnERSo
libpt.so.2.10.11:_ZNK4PURL8AsStringENS_9UrlFormatE
libpt.so.2.10.11:_ZNK4PURL8GetQueryEv
libpt.so.2.10.11:_ZNK4PXML10GetElementERK15PCaselessStringS2_RK7PString
libpt.so.2.10.11:_ZNK4PXML10GetElementERK15PCaselessStringi
libpt.so.2.10.11:_ZNK4PXML10GetElementEi
libpt.so.2.10.11:_ZNK4PXML14GetNumElementsEv
libpt.so.2.10.11:_ZNK4PXML15GetDocumentTypeEv
libpt.so.2.10.11:_ZNK4PXML17IsNoIndentElementERK7PString
libpt.so.2.10.11:_ZNK4PXML7IsDirtyEv
libpt.so.2.10.11:_ZNK4PXML7PrintOnERSo
libpt.so.2.10.11:_ZNK4PXML8AsStringEv
libpt.so.2.10.11:_ZNK5PFile11GetFilePathEv
libpt.so.2.10.11:_ZNK5PFile11GetPositionEv
libpt.so.2.10.11:_ZNK5PFile11IsEndOfFileEv
libpt.so.2.10.11:_ZNK5PFile6ExistsEv
libpt.so.2.10.11:_ZNK5PFile7CompareERK7PObject
libpt.so.2.10.11:_ZNK5PFile7GetNameEv
libpt.so.2.10.11:_ZNK5PFile9GetLengthEv
libpt.so.2.10.11:_ZNK5PHTML10InputField7AddAttrERS_
libpt.so.2.10.11:_ZNK5PHTML10InputImage7AddAttrERS_
libpt.so.2.10.11:_ZNK5PHTML10SimpleList7AddAttrERS_
libpt.so.2.10.11:_ZNK5PHTML10TableStart6OutputERS_
libpt.so.2.10.11:_ZNK5PHTML10TableStart7AddAttrERS_
libpt.so.2.10.11:_ZNK5PHTML11HiddenField7AddAttrERS_
libpt.so.2.10.11:_ZNK5PHTML11InputNumber7AddAttrERS_
libpt.so.2.10.11:_ZNK5PHTML11OrderedList7AddAttrERS_
libpt.so.2.10.11:_ZNK5PHTML11RadioButton7AddAttrERS_
libpt.so.2.10.11:_ZNK5PHTML11ResetButton7AddAttrERS_
libpt.so.2.10.11:_ZNK5PHTML12FieldElement7AddAttrERS_
libpt.so.2.10.11:_ZNK5PHTML12ImageElement7AddAttrERS_
libpt.so.2.10.11:_ZNK5PHTML14DefinitionItem6OutputERS_
libpt.so.2.10.11:_ZNK5PHTML14DefinitionTerm6OutputERS_
libpt.so.2.10.11:_ZNK5PHTML2IsENS_12ElementInSetE
libpt.so.2.10.11:_ZNK5PHTML3Tab7AddAttrERS_
libpt.so.2.10.11:_ZNK5PHTML4Body6OutputERS_
libpt.so.2.10.11:_ZNK5PHTML4Form7AddAttrERS_
libpt.so.2.10.11:_ZNK5PHTML4Head6OutputERS_
libpt.so.2.10.11:_ZNK5PHTML5Image7AddAttrERS_
libpt.so.2.10.11:_ZNK5PHTML5Title6OutputERS_
libpt.so.2.10.11:_ZNK5PHTML6Option7AddAttrERS_
libpt.so.2.10.11:_ZNK5PHTML6Select7AddAttrERS_
libpt.so.2.10.11:_ZNK5PHTML6SetTab7AddAttrERS_
libpt.so.2.10.11:_ZNK5PHTML6Target7AddAttrERS_
libpt.so.2.10.11:_ZNK5PHTML7Element6OutputERS_
libpt.so.2.10.11:_ZNK5PHTML7Element7AddAttrERS_
libpt.so.2.10.11:_ZNK5PHTML7Heading7AddAttrERS_
libpt.so.2.10.11:_ZNK5PHTML7HotLink7AddAttrERS_
libpt.so.2.10.11:_ZNK5PHTML8ListItem7AddAttrERS_
libpt.so.2.10.11:_ZNK5PHTML8TableEnd6OutputERS_
libpt.so.2.10.11:_ZNK5PHTML8TextArea7AddAttrERS_
libpt.so.2.10.11:_ZNK5PHTML9FormField7AddAttrERS_
libpt.so.2.10.11:_ZNK5PHTML9InputFile7AddAttrERS_
libpt.so.2.10.11:_ZNK5PHTML9InputText7AddAttrERS_
libpt.so.2.10.11:_ZNK5PHTML9PreFormat7AddAttrERS_
libpt.so.2.10.11:_ZNK5PTime12GetDayOfWeekEv
libpt.so.2.10.11:_ZNK5PTime12GetDayOfYearEv
libpt.so.2.10.11:_ZNK5PTime12GetTimestampEv
libpt.so.2.10.11:_ZNK5PTime14GetMicrosecondEv
libpt.so.2.10.11:_ZNK5PTime16GetTimeInSecondsEv
libpt.so.2.10.11:_ZNK5PTime5CloneEv
libpt.so.2.10.11:_ZNK5PTime6GetDayEv
libpt.so.2.10.11:_ZNK5PTime6IsPastEv
libpt.so.2.10.11:_ZNK5PTime7CompareERK7PObject
libpt.so.2.10.11:_ZNK5PTime7GetHourEv
libpt.so.2.10.11:_ZNK5PTime7GetYearEv
libpt.so.2.10.11:_ZNK5PTime7IsValidEv
libpt.so.2.10.11:_ZNK5PTime7PrintOnERSo
libpt.so.2.10.11:_ZNK5PTime8AsStringENS_10TimeFormatEi
libpt.so.2.10.11:_ZNK5PTime8AsStringEPKci
libpt.so.2.10.11:_ZNK5PTime8AsStringERK7PStringi
libpt.so.2.10.11:_ZNK5PTime8GetMonthEv
libpt.so.2.10.11:_ZNK5PTime8IsFutureEv
libpt.so.2.10.11:_ZNK5PTime9GetMinuteEv
libpt.so.2.10.11:_ZNK5PTime9GetSecondEv
libpt.so.2.10.11:_ZNK5PTimemiERK13PTimeInterval
libpt.so.2.10.11:_ZNK5PTimemiERKS_
libpt.so.2.10.11:_ZNK5PTimeplERK13PTimeInterval
libpt.so.2.10.11:_ZNK6PModem11CanSendUserEv
libpt.so.2.10.11:_ZNK6PModem13CanInitialiseEv
libpt.so.2.10.11:_ZNK6PModem13GetBusyStringEv
libpt.so.2.10.11:_ZNK6PModem13GetInitStringEv
libpt.so.2.10.11:_ZNK6PModem15CanDeinitialiseEv
libpt.so.2.10.11:_ZNK6PModem15GetDeinitStringEv
libpt.so.2.10.11:_ZNK6PModem15GetHangUpStringEv
libpt.so.2.10.11:_ZNK6PModem16GetConnectStringEv
libpt.so.2.10.11:_ZNK6PModem16GetPreDialStringEv
libpt.so.2.10.11:_ZNK6PModem17GetPostDialStringEv
libpt.so.2.10.11:_ZNK6PModem18GetNoCarrierStringEv
libpt.so.2.10.11:_ZNK6PModem7CanDialEv
libpt.so.2.10.11:_ZNK6PModem7CanReadEv
libpt.so.2.10.11:_ZNK6PModem9CanHangUpEv
libpt.so.2.10.11:_ZNK6PModem9GetStatusEv
libpt.so.2.10.11:_ZNK6PTimer11GetNotifierEv
libpt.so.2.10.11:_ZNK6PTimer12GetResetTimeEv
libpt.so.2.10.11:_ZNK6PTimer15GetMilliSecondsEv
libpt.so.2.10.11:_ZNK6PTimer8IsPausedEv
libpt.so.2.10.11:_ZNK6PTimer9IsRunningEv
libpt.so.2.10.11:_ZNK6PvCard10ParamValue7PrintOnERSo
libpt.so.2.10.11:_ZNK6PvCard10TextValues7PrintOnERSo
libpt.so.2.10.11:_ZNK6PvCard10TypeValues7PrintOnERSo
libpt.so.2.10.11:_ZNK6PvCard11InlineValue7PrintOnERSo
libpt.so.2.10.11:_ZNK6PvCard11ParamValues7PrintOnERSo
libpt.so.2.10.11:_ZNK6PvCard5EMail7PrintOnERSo
libpt.so.2.10.11:_ZNK6PvCard5Token7PrintOnERSo
libpt.so.2.10.11:_ZNK6PvCard7Address7PrintOnERSo
libpt.so.2.10.11:_ZNK6PvCard7IsValidEv
libpt.so.2.10.11:_ZNK6PvCard7PrintOnERSo
libpt.so.2.10.11:_ZNK6PvCard8URIValue7PrintOnERSo
libpt.so.2.10.11:_ZNK6PvCard9Separator7PrintOnERSo
libpt.so.2.10.11:_ZNK6PvCard9Telephone7PrintOnERSo
libpt.so.2.10.11:_ZNK6PvCard9TextValue7PrintOnERSo
libpt.so.2.10.11:_ZNK7PConfig10GetBooleanERK7PStringS2_b
libpt.so.2.10.11:_ZNK7PConfig10GetBooleanERK7PStringb
libpt.so.2.10.11:_ZNK7PConfig10GetIntegerERK7PStringS2_l
libpt.so.2.10.11:_ZNK7PConfig10GetIntegerERK7PStringl
libpt.so.2.10.11:_ZNK7PConfig11GetSectionsEv
libpt.so.2.10.11:_ZNK7PConfig15GetAllKeyValuesERK7PString
libpt.so.2.10.11:_ZNK7PConfig15GetAllKeyValuesEv
libpt.so.2.10.11:_ZNK7PConfig17GetDefaultSectionEv
libpt.so.2.10.11:_ZNK7PConfig6HasKeyERK7PString
libpt.so.2.10.11:_ZNK7PConfig6HasKeyERK7PStringS2_
libpt.so.2.10.11:_ZNK7PConfig7GetKeysERK7PString
libpt.so.2.10.11:_ZNK7PConfig7GetKeysEv
libpt.so.2.10.11:_ZNK7PConfig7GetRealERK7PStringS2_d
libpt.so.2.10.11:_ZNK7PConfig7GetRealERK7PStringd
libpt.so.2.10.11:_ZNK7PConfig7GetTimeERK7PString
libpt.so.2.10.11:_ZNK7PConfig7GetTimeERK7PStringRK5PTime
libpt.so.2.10.11:_ZNK7PConfig7GetTimeERK7PStringS2_
libpt.so.2.10.11:_ZNK7PConfig7GetTimeERK7PStringS2_RK5PTime
libpt.so.2.10.11:_ZNK7PConfig8GetInt64ERK7PStringS2_x
libpt.so.2.10.11:_ZNK7PConfig8GetInt64ERK7PStringx
libpt.so.2.10.11:_ZNK7PConfig9GetStringERK7PString
libpt.so.2.10.11:_ZNK7PConfig9GetStringERK7PStringS2_
libpt.so.2.10.11:_ZNK7PConfig9GetStringERK7PStringS2_S2_
libpt.so.2.10.11:_ZNK7PObject12HashFunctionEv
libpt.so.2.10.11:_ZNK7PObject25CompareObjectMemoryDirectERKS_
libpt.so.2.10.11:_ZNK7PObject5CloneEv
libpt.so.2.10.11:_ZNK7PObject7CompareERKS_
libpt.so.2.10.11:_ZNK7PObject7PrintOnERSo
libpt.so.2.10.11:_ZNK7PSocket10GetServiceEv
libpt.so.2.10.11:_ZNK7PSocket16GetPortByServiceERK7PString
libpt.so.2.10.11:_ZNK7PSocket16GetServiceByPortEt
libpt.so.2.10.11:_ZNK7PSocket7GetPortEv
libpt.so.2.10.11:_ZNK7PString10AsUnsignedEj
libpt.so.2.10.11:_ZNK7PString10NumCompareEPKcii
libpt.so.2.10.11:_ZNK7PString10NumCompareERKS_ii
libpt.so.2.10.11:_ZNK7PString12AsUnsigned64Ej
libpt.so.2.10.11:_ZNK7PString12HashFunctionEv
libpt.so.2.10.11:_ZNK7PString12MatchesRegExERK18PRegularExpression
libpt.so.2.10.11:_ZNK7PString15InternalCompareEic
libpt.so.2.10.11:_ZNK7PString15InternalCompareEiiPKc
libpt.so.2.10.11:_ZNK7PString3MidEii
libpt.so.2.10.11:_ZNK7PString4FindEPKci
libpt.so.2.10.11:_ZNK7PString4FindERKS_i
libpt.so.2.10.11:_ZNK7PString4FindEci
libpt.so.2.10.11:_ZNK7PString4LeftEi
libpt.so.2.10.11:_ZNK7PString4TrimEv
libpt.so.2.10.11:_ZNK7PString5CloneEv
libpt.so.2.10.11:_ZNK7PString5LinesEv
libpt.so.2.10.11:_ZNK7PString5RightEi
libpt.so.2.10.11:_ZNK7PString6AsRealEv
libpt.so.2.10.11:_ZNK7PString6AsUCS2Ev
libpt.so.2.10.11:_ZNK7PString7AsInt64Ej
libpt.so.2.10.11:_ZNK7PString7CompareERK7PObject
libpt.so.2.10.11:_ZNK7PString7IsEmptyEv
libpt.so.2.10.11:_ZNK7PString7PrintOnERSo
libpt.so.2.10.11:_ZNK7PString7ToLowerEv
libpt.so.2.10.11:_ZNK7PString7ToUpperEv
libpt.so.2.10.11:_ZNK7PString8FindLastEPKci
libpt.so.2.10.11:_ZNK7PString8FindLastERKS_i
libpt.so.2.10.11:_ZNK7PString8FindLastEci
libpt.so.2.10.11:_ZNK7PString8FindSpanEPKci
libpt.so.2.10.11:_ZNK7PString8FindSpanERKS_i
libpt.so.2.10.11:_ZNK7PString8LeftTrimEv
libpt.so.2.10.11:_ZNK7PString8ToPascalEv
libpt.so.2.10.11:_ZNK7PString8TokeniseEPKcb
libpt.so.2.10.11:_ZNK7PString8TokeniseERKS_b
libpt.so.2.10.11:_ZNK7PString9AsIntegerEj
libpt.so.2.10.11:_ZNK7PString9FindOneOfEPKci
libpt.so.2.10.11:_ZNK7PString9FindOneOfERKS_i
libpt.so.2.10.11:_ZNK7PString9FindRegExERK18PRegularExpressionRiS3_ii
libpt.so.2.10.11:_ZNK7PString9FindRegExERK18PRegularExpressioni
libpt.so.2.10.11:_ZNK7PString9GetLengthEv
libpt.so.2.10.11:_ZNK7PString9RightTrimEv
libpt.so.2.10.11:_ZNK7PString9ToLiteralEv
libpt.so.2.10.11:_ZNK7PStringanEPKc
libpt.so.2.10.11:_ZNK7PStringanERKS_
libpt.so.2.10.11:_ZNK7PStringanEc
libpt.so.2.10.11:_ZNK7PStringclEii
libpt.so.2.10.11:_ZNK7PStringcvPKhEv
libpt.so.2.10.11:_ZNK7PStringeqEPKc
libpt.so.2.10.11:_ZNK7PStringeqERK7PObject
libpt.so.2.10.11:_ZNK7PStringgeEPKc
libpt.so.2.10.11:_ZNK7PStringgeERK7PObject
libpt.so.2.10.11:_ZNK7PStringgtEPKc
libpt.so.2.10.11:_ZNK7PStringgtERK7PObject
libpt.so.2.10.11:_ZNK7PStringleEPKc
libpt.so.2.10.11:_ZNK7PStringleERK7PObject
libpt.so.2.10.11:_ZNK7PStringltEPKc
libpt.so.2.10.11:_ZNK7PStringltERK7PObject
libpt.so.2.10.11:_ZNK7PStringmLEPKc
libpt.so.2.10.11:_ZNK7PStringmLERKS_
libpt.so.2.10.11:_ZNK7PStringneEPKc
libpt.so.2.10.11:_ZNK7PStringneERK7PObject
libpt.so.2.10.11:_ZNK7PStringntEv
libpt.so.2.10.11:_ZNK7PStringplEPKc
libpt.so.2.10.11:_ZNK7PStringplERKS_
libpt.so.2.10.11:_ZNK7PStringplEc
libpt.so.2.10.11:_ZNK7PThread11GetPriorityEv
libpt.so.2.10.11:_ZNK7PThread11IsSuspendedEv
libpt.so.2.10.11:_ZNK7PThread12IsTerminatedEv
libpt.so.2.10.11:_ZNK7PThread12PXAbortBlockEv
libpt.so.2.10.11:_ZNK7PThread13GetThreadNameEv
libpt.so.2.10.11:_ZNK7PThread18WaitForTerminationERK13PTimeInterval
libpt.so.2.10.11:_ZNK7PThread18WaitForTerminationEv
libpt.so.2.10.11:_ZNK7PThread7PrintOnERSo
libpt.so.2.10.11:_ZNK8PASNNull15GetTypeAsStringEv
libpt.so.2.10.11:_ZNK8PASNNull5CloneEv
libpt.so.2.10.11:_ZNK8PASNNull7GetTypeEv
libpt.so.2.10.11:_ZNK8PASNNull7PrintOnERSo
libpt.so.2.10.11:_ZNK8PASNNull9GetStringEv
libpt.so.2.10.11:_ZNK8PASN_Set15GetTypeAsStringEv
libpt.so.2.10.11:_ZNK8PASN_Set5CloneEv
libpt.so.2.10.11:_ZNK8PArgList12GetParameterEi
libpt.so.2.10.11:_ZNK8PArgList13GetParametersEii
libpt.so.2.10.11:_ZNK8PArgList13UnknownOptionERK7PString
libpt.so.2.10.11:_ZNK8PArgList14GetOptionCountEPKc
libpt.so.2.10.11:_ZNK8PArgList14GetOptionCountERK7PString
libpt.so.2.10.11:_ZNK8PArgList14GetOptionCountEc
libpt.so.2.10.11:_ZNK8PArgList15GetOptionStringEPKcS1_
libpt.so.2.10.11:_ZNK8PArgList15GetOptionStringERK7PStringPKc
libpt.so.2.10.11:_ZNK8PArgList15GetOptionStringEcPKc
libpt.so.2.10.11:_ZNK8PArgList15MissingArgumentERK7PString
libpt.so.2.10.11:_ZNK8PArgList20IllegalArgumentIndexEi
libpt.so.2.10.11:_ZNK8PArgList21GetOptionCountByIndexEi
libpt.so.2.10.11:_ZNK8PArgList22GetOptionStringByIndexEiPKc
libpt.so.2.10.11:_ZNK8PArgList7PrintOnERSo
libpt.so.2.10.11:_ZNK8PArgList8GetCountEv
libpt.so.2.10.11:_ZNK8PArgList9HasOptionEPKc
libpt.so.2.10.11:_ZNK8PArgList9HasOptionERK7PString
libpt.so.2.10.11:_ZNK8PArgList9HasOptionEc
libpt.so.2.10.11:_ZNK8PArgListixEi
libpt.so.2.10.11:_ZNK8PChannel12GetErrorCodeENS_10ErrorGroupE
libpt.so.2.10.11:_ZNK8PChannel12GetErrorTextENS_10ErrorGroupE
libpt.so.2.10.11:_ZNK8PChannel12HashFunctionEv
libpt.so.2.10.11:_ZNK8PChannel14GetErrorNumberENS_10ErrorGroupE
libpt.so.2.10.11:_ZNK8PChannel14GetReadTimeoutEv
libpt.so.2.10.11:_ZNK8PChannel15GetWriteTimeoutEv
libpt.so.2.10.11:_ZNK8PChannel16GetLastReadCountEv
libpt.so.2.10.11:_ZNK8PChannel17GetLastWriteCountEv
libpt.so.2.10.11:_ZNK8PChannel18GetBaseReadChannelEv
libpt.so.2.10.11:_ZNK8PChannel19GetBaseWriteChannelEv
libpt.so.2.10.11:_ZNK8PChannel6IsOpenEv
libpt.so.2.10.11:_ZNK8PChannel7CompareERK7PObject
libpt.so.2.10.11:_ZNK8PChannel7GetNameEv
libpt.so.2.10.11:_ZNK8PChannel9GetHandleEv
libpt.so.2.10.11:_ZNK8PProcess10GetVersionEb
libpt.so.2.10.11:_ZNK8PProcess11GetUserNameEv
libpt.so.2.10.11:_ZNK8PProcess12GetGroupNameEv
libpt.so.2.10.11:_ZNK8PProcess12GetStartTimeEv
libpt.so.2.10.11:_ZNK8PProcess13GetMaxHandlesEv
libpt.so.2.10.11:_ZNK8PProcess13GetThreadNameEv
libpt.so.2.10.11:_ZNK8PProcess15GetManufacturerEv
libpt.so.2.10.11:_ZNK8PProcess19GetTerminationValueEv
libpt.so.2.10.11:_ZNK8PProcess24HostSystemURLHandlerInfo10GetCommandERK7PString
libpt.so.2.10.11:_ZNK8PProcess24HostSystemURLHandlerInfo7GetIconEv
libpt.so.2.10.11:_ZNK8PProcess7CompareERK7PObject
libpt.so.2.10.11:_ZNK8PProcess7GetFileEv
libpt.so.2.10.11:_ZNK8PProcess7GetNameEv
libpt.so.2.10.11:_ZNK8PWAVFile11GetChannelsEv
libpt.so.2.10.11:_ZNK8PWAVFile11GetPositionEv
libpt.so.2.10.11:_ZNK8PWAVFile13GetSampleRateEv
libpt.so.2.10.11:_ZNK8PWAVFile13GetSampleSizeEv
libpt.so.2.10.11:_ZNK8PWAVFile14RawGetPositionEv
libpt.so.2.10.11:_ZNK8PWAVFile15GetHeaderLengthEv
libpt.so.2.10.11:_ZNK8PWAVFile17GetBytesPerSecondEv
libpt.so.2.10.11:_ZNK8PWAVFile17GetFormatAsStringEv
libpt.so.2.10.11:_ZNK8PWAVFile9GetFormatEv
libpt.so.2.10.11:_ZNK8PXConfig16GetSectionsIndexERK7PString
libpt.so.2.10.11:_ZNK8PXMLData5CloneEP11PXMLElement
libpt.so.2.10.11:_ZNK8PXMLData6OutputERSoRK8PXMLBasei
libpt.so.2.10.11:_ZNK9PASNGauge15GetTypeAsStringEv
libpt.so.2.10.11:_ZNK9PASN_Null13GetDataLengthEv
libpt.so.2.10.11:_ZNK9PASN_Null15GetTypeAsStringEv
libpt.so.2.10.11:_ZNK9PASN_Null5CloneEv
libpt.so.2.10.11:_ZNK9PASN_Null6EncodeER11PASN_Stream
libpt.so.2.10.11:_ZNK9PASN_Null7CompareERK7PObject
libpt.so.2.10.11:_ZNK9PASN_Null7PrintOnERSo
libpt.so.2.10.11:_ZNK9PASN_Real13GetDataLengthEv
libpt.so.2.10.11:_ZNK9PASN_Real15GetTypeAsStringEv
libpt.so.2.10.11:_ZNK9PASN_Real5CloneEv
libpt.so.2.10.11:_ZNK9PASN_Real6EncodeER11PASN_Stream
libpt.so.2.10.11:_ZNK9PASN_Real7CompareERK7PObject
libpt.so.2.10.11:_ZNK9PASN_Real7PrintOnERSo
libpt.so.2.10.11:_ZNK9PBitArray5CloneEv
libpt.so.2.10.11:_ZNK9PBitArray5GetAtEi
libpt.so.2.10.11:_ZNK9PBitArray7GetSizeEv
libpt.so.2.10.11:_ZNK9PDynaLink7GetNameEb
libpt.so.2.10.11:_ZNK9PDynaLink8IsLoadedEv
libpt.so.2.10.11:_ZNK9PFilePath11GetFileNameEv
libpt.so.2.10.11:_ZNK9PFilePath12GetDirectoryEv
libpt.so.2.10.11:_ZNK9PFilePath7GetPathEv
libpt.so.2.10.11:_ZNK9PFilePath7GetTypeEv
libpt.so.2.10.11:_ZNK9PFilePath8GetTitleEv
libpt.so.2.10.11:_ZNK9PFilePath9GetVolumeEv
libpt.so.2.10.11:_ZNK9PIPSocket14InterfaceEntry7PrintOnERSo
libpt.so.2.10.11:_ZNK9PIPSocket7Address10IsLoopbackEv
libpt.so.2.10.11:_ZNK9PIPSocket7Address10IsV4MappedEv
libpt.so.2.10.11:_ZNK9PIPSocket7Address11IsBroadcastEv
libpt.so.2.10.11:_ZNK9PIPSocket7Address11IsLinkLocalEv
libpt.so.2.10.11:_ZNK9PIPSocket7Address11IsMulticastEv
libpt.so.2.10.11:_ZNK9PIPSocket7Address5Byte1Ev
libpt.so.2.10.11:_ZNK9PIPSocket7Address5Byte2Ev
libpt.so.2.10.11:_ZNK9PIPSocket7Address5Byte3Ev
libpt.so.2.10.11:_ZNK9PIPSocket7Address5Byte4Ev
libpt.so.2.10.11:_ZNK9PIPSocket7Address5IsAnyEv
libpt.so.2.10.11:_ZNK9PIPSocket7Address7CompareERK7PObject
libpt.so.2.10.11:_ZNK9PIPSocket7Address7GetSizeEv
libpt.so.2.10.11:_ZNK9PIPSocket7Address7IsValidEv
libpt.so.2.10.11:_ZNK9PIPSocket7Address8AsStringEb
libpt.so.2.10.11:_ZNK9PIPSocket7Address9IsRFC1918Ev
libpt.so.2.10.11:_ZNK9PIPSocket7Addresscv7PStringEv
libpt.so.2.10.11:_ZNK9PIPSocket7Addresscv7in_addrEv
libpt.so.2.10.11:_ZNK9PIPSocket7Addresscv8in6_addrEv
libpt.so.2.10.11:_ZNK9PIPSocket7AddresscvjEv
libpt.so.2.10.11:_ZNK9PIPSocket7AddresseqER7in_addr
libpt.so.2.10.11:_ZNK9PIPSocket7AddresseqER8in6_addr
libpt.so.2.10.11:_ZNK9PIPSocket7AddresseqEj
libpt.so.2.10.11:_ZNK9PIPSocket7AddressixEi
libpt.so.2.10.11:_ZNK9PIPSocket7AddressmLERKS0_
libpt.so.2.10.11:_ZNK9PIPSocket7GetNameEv
libpt.so.2.10.11:_ZNK9PMIMEInfo13PrintContentsERSo
libpt.so.2.10.11:_ZNK9PMIMEInfo19DecodeMultiPartListER14PMultiPartListRK7PStringRK15PCaselessString
libpt.so.2.10.11:_ZNK9PMIMEInfo5WriteER17PInternetProtocol
libpt.so.2.10.11:_ZNK9PMIMEInfo7PrintOnERSo
libpt.so.2.10.11:_ZNK9PMIMEInfo8AsStringEv
libpt.so.2.10.11:_ZNK9PSNMP_PDU13GetDataLengthEv
libpt.so.2.10.11:_ZNK9PSNMP_PDU5CloneEv
libpt.so.2.10.11:_ZNK9PSNMP_PDU6EncodeER11PASN_Stream
libpt.so.2.10.11:_ZNK9PSNMP_PDU7CompareERK7PObject
libpt.so.2.10.11:_ZNK9PSNMP_PDU7PrintOnERSo
libpt.so.2.10.11:_ZNK9Psockaddr5GetIPEv
libpt.so.2.10.11:_ZNK9Psockaddr7GetPortEv
libpt.so.2.10.11:_ZNK9Psockaddr7GetSizeEv
libpt.so.2.10.11:_ZThn24_N10PEthSocketD0Ev
libpt.so.2.10.11:_ZThn24_N10PEthSocketD1Ev
libpt.so.2.10.11:_ZThn24_N10PFTPClientD0Ev
libpt.so.2.10.11:_ZThn24_N10PFTPClientD1Ev
libpt.so.2.10.11:_ZThn24_N10PFTPServerD0Ev
libpt.so.2.10.11:_ZThn24_N10PFTPServerD1Ev
libpt.so.2.10.11:_ZThn24_N11PMemoryFileD0Ev
libpt.so.2.10.11:_ZThn24_N11PMemoryFileD1Ev
libpt.so.2.10.11:_ZThn24_N11PPOP3ClientD0Ev
libpt.so.2.10.11:_ZThn24_N11PPOP3ClientD1Ev
libpt.so.2.10.11:_ZThn24_N11PSMTPClientD0Ev
libpt.so.2.10.11:_ZThn24_N11PSMTPClientD1Ev
libpt.so.2.10.11:_ZThn24_N11PSNMPServerD0Ev
libpt.so.2.10.11:_ZThn24_N11PSNMPServerD1Ev
libpt.so.2.10.11:_ZThn24_N11PSSLChannelD0Ev
libpt.so.2.10.11:_ZThn24_N11PSSLChannelD1Ev
libpt.so.2.10.11:_ZThn24_N12PPipeChannelD0Ev
libpt.so.2.10.11:_ZThn24_N12PPipeChannelD1Ev
libpt.so.2.10.11:_ZThn24_N12PVXMLChannelD0Ev
libpt.so.2.10.11:_ZThn24_N12PVXMLChannelD1Ev
libpt.so.2.10.11:_ZThn24_N12PVXMLSessionD0Ev
libpt.so.2.10.11:_ZThn24_N12PVXMLSessionD1Ev
libpt.so.2.10.11:_ZThn24_N13PQueueChannelD0Ev
libpt.so.2.10.11:_ZThn24_N13PQueueChannelD1Ev
libpt.so.2.10.11:_ZThn24_N13PSoundChannelD0Ev
libpt.so.2.10.11:_ZThn24_N13PSoundChannelD1Ev
libpt.so.2.10.11:_ZThn24_N13PVideoChannelD0Ev
libpt.so.2.10.11:_ZThn24_N13PVideoChannelD1Ev
libpt.so.2.10.11:_ZThn24_N14PRFC822ChannelD0Ev
libpt.so.2.10.11:_ZThn24_N14PRFC822ChannelD1Ev
libpt.so.2.10.11:_ZThn24_N14PSerialChannelD0Ev
libpt.so.2.10.11:_ZThn24_N14PSerialChannelD1Ev
libpt.so.2.10.11:_ZThn24_N16PIndirectChannelD0Ev
libpt.so.2.10.11:_ZThn24_N16PIndirectChannelD1Ev
libpt.so.2.10.11:_ZThn24_N21PSoundChannel_WAVFileD0Ev
libpt.so.2.10.11:_ZThn24_N21PSoundChannel_WAVFileD1Ev
libpt.so.2.10.11:_ZThn24_N4PCLI7ContextD0Ev
libpt.so.2.10.11:_ZThn24_N4PCLI7ContextD1Ev
libpt.so.2.10.11:_ZThn24_N5PFileD0Ev
libpt.so.2.10.11:_ZThn24_N5PFileD1Ev
libpt.so.2.10.11:_ZThn24_N7PSocketD0Ev
libpt.so.2.10.11:_ZThn24_N7PSocketD1Ev
libpt.so.2.10.11:_ZThn24_N8PChannelD0Ev
libpt.so.2.10.11:_ZThn24_N8PChannelD1Ev
libpt.so.2.10.11:_ZThn24_N8PWAVFileD0Ev
libpt.so.2.10.11:_ZThn24_N8PWAVFileD1Ev
libpt.so.2.10.11:_ZThn40_N13PStringStreamD0Ev
libpt.so.2.10.11:_ZThn40_N13PStringStreamD1Ev
libpt.so.2.10.11:_ZThn40_N5PHTMLD0Ev
libpt.so.2.10.11:_ZThn40_N5PHTMLD1Ev
libpt.so.2.10.11:_ZThn488_N12PSocksSocket13SetErrorCodesEN8PChannel6ErrorsEi
libpt.so.2.10.11:_ZThn488_N13PSocks4Socket16SendSocksCommandER10PTCPSockethPKcN9PIPSocket7AddressE
libpt.so.2.10.11:_ZThn488_N13PSocks4Socket20ReceiveSocksResponseER10PTCPSocketRN9PIPSocket7AddressERt
libpt.so.2.10.11:_ZThn56_N13PStringStreamD0Ev
libpt.so.2.10.11:_ZThn56_N13PStringStreamD1Ev
libpt.so.2.10.11:_ZThn56_N5PHTMLD0Ev
libpt.so.2.10.11:_ZThn56_N5PHTMLD1Ev
libpt.so.2.10.11:_ZThn600_N15PSocksUDPSocket13SetErrorCodesEN8PChannel6ErrorsEi
libpt.so.2.10.11:_ZThn8_N10PEthSocketD0Ev
libpt.so.2.10.11:_ZThn8_N10PEthSocketD1Ev
libpt.so.2.10.11:_ZThn8_N10PFTPClientD0Ev
libpt.so.2.10.11:_ZThn8_N10PFTPClientD1Ev
libpt.so.2.10.11:_ZThn8_N10PFTPServerD0Ev
libpt.so.2.10.11:_ZThn8_N10PFTPServerD1Ev
libpt.so.2.10.11:_ZThn8_N11PMemoryFileD0Ev
libpt.so.2.10.11:_ZThn8_N11PMemoryFileD1Ev
libpt.so.2.10.11:_ZThn8_N11PPOP3ClientD0Ev
libpt.so.2.10.11:_ZThn8_N11PPOP3ClientD1Ev
libpt.so.2.10.11:_ZThn8_N11PSMTPClientD0Ev
libpt.so.2.10.11:_ZThn8_N11PSMTPClientD1Ev
libpt.so.2.10.11:_ZThn8_N11PSNMPServerD0Ev
libpt.so.2.10.11:_ZThn8_N11PSNMPServerD1Ev
libpt.so.2.10.11:_ZThn8_N11PSSLChannelD0Ev
libpt.so.2.10.11:_ZThn8_N11PSSLChannelD1Ev
libpt.so.2.10.11:_ZThn8_N12PPipeChannelD0Ev
libpt.so.2.10.11:_ZThn8_N12PPipeChannelD1Ev
libpt.so.2.10.11:_ZThn8_N12PVXMLChannelD0Ev
libpt.so.2.10.11:_ZThn8_N12PVXMLChannelD1Ev
libpt.so.2.10.11:_ZThn8_N12PVXMLSessionD0Ev
libpt.so.2.10.11:_ZThn8_N12PVXMLSessionD1Ev
libpt.so.2.10.11:_ZThn8_N13PQueueChannelD0Ev
libpt.so.2.10.11:_ZThn8_N13PQueueChannelD1Ev
libpt.so.2.10.11:_ZThn8_N13PSoundChannelD0Ev
libpt.so.2.10.11:_ZThn8_N13PSoundChannelD1Ev
libpt.so.2.10.11:_ZThn8_N13PVideoChannelD0Ev
libpt.so.2.10.11:_ZThn8_N13PVideoChannelD1Ev
libpt.so.2.10.11:_ZThn8_N14PRFC822ChannelD0Ev
libpt.so.2.10.11:_ZThn8_N14PRFC822ChannelD1Ev
libpt.so.2.10.11:_ZThn8_N14PSerialChannelD0Ev
libpt.so.2.10.11:_ZThn8_N14PSerialChannelD1Ev
libpt.so.2.10.11:_ZThn8_N16PIndirectChannelD0Ev
libpt.so.2.10.11:_ZThn8_N16PIndirectChannelD1Ev
libpt.so.2.10.11:_ZThn8_N21PSoundChannel_WAVFileD0Ev
libpt.so.2.10.11:_ZThn8_N21PSoundChannel_WAVFileD1Ev
libpt.so.2.10.11:_ZThn8_N4PCLI7ContextD0Ev
libpt.so.2.10.11:_ZThn8_N4PCLI7ContextD1Ev
libpt.so.2.10.11:_ZThn8_N5PFileD0Ev
libpt.so.2.10.11:_ZThn8_N5PFileD1Ev
libpt.so.2.10.11:_ZThn8_N7PSocketD0Ev
libpt.so.2.10.11:_ZThn8_N7PSocketD1Ev
libpt.so.2.10.11:_ZThn8_N8PChannelD0Ev
libpt.so.2.10.11:_ZThn8_N8PChannelD1Ev
libpt.so.2.10.11:_ZThn8_N8PWAVFileD0Ev
libpt.so.2.10.11:_ZThn8_N8PWAVFileD1Ev
libpt.so.2.10.11:_ZTv0_n24_N10PEthSocketD0Ev
libpt.so.2.10.11:_ZTv0_n24_N10PEthSocketD1Ev
libpt.so.2.10.11:_ZTv0_n24_N10PFTPClientD0Ev
libpt.so.2.10.11:_ZTv0_n24_N10PFTPClientD1Ev
libpt.so.2.10.11:_ZTv0_n24_N10PFTPServerD0Ev
libpt.so.2.10.11:_ZTv0_n24_N10PFTPServerD1Ev
libpt.so.2.10.11:_ZTv0_n24_N11PMemoryFileD0Ev
libpt.so.2.10.11:_ZTv0_n24_N11PMemoryFileD1Ev
libpt.so.2.10.11:_ZTv0_n24_N11PPOP3ClientD0Ev
libpt.so.2.10.11:_ZTv0_n24_N11PPOP3ClientD1Ev
libpt.so.2.10.11:_ZTv0_n24_N11PSMTPClientD0Ev
libpt.so.2.10.11:_ZTv0_n24_N11PSMTPClientD1Ev
libpt.so.2.10.11:_ZTv0_n24_N11PSNMPServerD0Ev
libpt.so.2.10.11:_ZTv0_n24_N11PSNMPServerD1Ev
libpt.so.2.10.11:_ZTv0_n24_N11PSSLChannelD0Ev
libpt.so.2.10.11:_ZTv0_n24_N11PSSLChannelD1Ev
libpt.so.2.10.11:_ZTv0_n24_N12PPipeChannelD0Ev
libpt.so.2.10.11:_ZTv0_n24_N12PPipeChannelD1Ev
libpt.so.2.10.11:_ZTv0_n24_N12PVXMLChannelD0Ev
libpt.so.2.10.11:_ZTv0_n24_N12PVXMLChannelD1Ev
libpt.so.2.10.11:_ZTv0_n24_N12PVXMLSessionD0Ev
libpt.so.2.10.11:_ZTv0_n24_N12PVXMLSessionD1Ev
libpt.so.2.10.11:_ZTv0_n24_N13PQueueChannelD0Ev
libpt.so.2.10.11:_ZTv0_n24_N13PQueueChannelD1Ev
libpt.so.2.10.11:_ZTv0_n24_N13PSoundChannelD0Ev
libpt.so.2.10.11:_ZTv0_n24_N13PSoundChannelD1Ev
libpt.so.2.10.11:_ZTv0_n24_N13PStringStreamD0Ev
libpt.so.2.10.11:_ZTv0_n24_N13PStringStreamD1Ev
libpt.so.2.10.11:_ZTv0_n24_N13PVideoChannelD0Ev
libpt.so.2.10.11:_ZTv0_n24_N13PVideoChannelD1Ev
libpt.so.2.10.11:_ZTv0_n24_N14PRFC822ChannelD0Ev
libpt.so.2.10.11:_ZTv0_n24_N14PRFC822ChannelD1Ev
libpt.so.2.10.11:_ZTv0_n24_N14PSerialChannelD0Ev
libpt.so.2.10.11:_ZTv0_n24_N14PSerialChannelD1Ev
libpt.so.2.10.11:_ZTv0_n24_N16PIndirectChannelD0Ev
libpt.so.2.10.11:_ZTv0_n24_N16PIndirectChannelD1Ev
libpt.so.2.10.11:_ZTv0_n24_N21PSoundChannel_WAVFileD0Ev
libpt.so.2.10.11:_ZTv0_n24_N21PSoundChannel_WAVFileD1Ev
libpt.so.2.10.11:_ZTv0_n24_N4PCLI7ContextD0Ev
libpt.so.2.10.11:_ZTv0_n24_N4PCLI7ContextD1Ev
libpt.so.2.10.11:_ZTv0_n24_N5PFileD0Ev
libpt.so.2.10.11:_ZTv0_n24_N5PFileD1Ev
libpt.so.2.10.11:_ZTv0_n24_N5PHTMLD0Ev
libpt.so.2.10.11:_ZTv0_n24_N5PHTMLD1Ev
libpt.so.2.10.11:_ZTv0_n24_N7PSocketD0Ev
libpt.so.2.10.11:_ZTv0_n24_N7PSocketD1Ev
libpt.so.2.10.11:_ZTv0_n24_N8PChannelD0Ev
libpt.so.2.10.11:_ZTv0_n24_N8PChannelD1Ev
libpt.so.2.10.11:_ZTv0_n24_N8PWAVFileD0Ev
libpt.so.2.10.11:_ZTv0_n24_N8PWAVFileD1Ev
libpt.so.2.10.11:_ZanPKcRK7PString
libpt.so.2.10.11:_ZancRK7PString
libpt.so.2.10.11:_ZdaPv
libpt.so.2.10.11:_ZlsRSoN12PVideoDevice11VideoFormatE
libpt.so.2.10.11:_ZlsRSoN15PVideoFrameInfo10ResizeModeE
libpt.so.2.10.11:_ZlsRSoRKN7PThread5TimesE
libpt.so.2.10.11:_ZlsRSoRKN9PIPSocket7AddressE
libpt.so.2.10.11:_Znam
libpt.so.2.10.11:_ZplPKcRK7PString
libpt.so.2.10.11:_ZplcRK7PString
libpt.so.2.10.11:_ZrsRSiRN9PIPSocket7AddressE
libpt.so.2.10.11:tinyjpeg_decode
libpt.so.2.10.11:tinyjpeg_free
libpt.so.2.10.11:tinyjpeg_get_components
libpt.so.2.10.11:tinyjpeg_get_errorstring
libpt.so.2.10.11:tinyjpeg_get_size
libpt.so.2.10.11:tinyjpeg_init
libpt.so.2.10.11:tinyjpeg_parse_header
libpt.so.2.10.11:tinyjpeg_set_components
libpt.so.2.10.11:tinyjpeg_set_flags
